 zlibwapi

 Timestamp is 52a73229 (Tue Dec 10 16:24:25 2013)

 Preferred load address is 10000000

 Start         Length     Name                   Class
 0001:00000000 00037545H .textbss                DATA
 0002:00000000 00071df7H .text                   CODE
 0002:00071e00 00001139H .text$x                 CODE
 0003:00000000 00000104H .CRT$XCA                DATA
 0003:00000104 00000104H .CRT$XCZ                DATA
 0003:00000208 00000104H .CRT$XIA                DATA
 0003:0000030c 00000113H .CRT$XIC                DATA
 0003:00000420 00000104H .CRT$XIZ                DATA
 0003:00000524 00000104H .CRT$XPA                DATA
 0003:00000628 00000109H .CRT$XPX                DATA
 0003:00000734 00000104H .CRT$XPXA               DATA
 0003:00000838 00000104H .CRT$XPZ                DATA
 0003:0000093c 00000104H .CRT$XTA                DATA
 0003:00000a40 00000104H .CRT$XTZ                DATA
 0003:00000b50 00012b27H .rdata                  DATA
 0003:00013678 000001c7H .rdata$debug            DATA
 0003:00013840 0000032fH .rdata$r                DATA
 0003:00013b70 00000104H .rtc$IAA                DATA
 0003:00013c74 00000104H .rtc$IZZ                DATA
 0003:00013d78 00000104H .rtc$TAA                DATA
 0003:00013e7c 00000104H .rtc$TZZ                DATA
 0003:00013f80 00000f82H .xdata$x                DATA
 0003:00014f10 00000f7aH .edata                  DATA
 0004:00000000 00001513H .data                   DATA
 0004:00001520 00002578H .bss                    DATA
 0005:00000000 00000014H .idata$2                DATA
 0005:00000014 00000014H .idata$3                DATA
 0005:00000028 000001b4H .idata$4                DATA
 0005:000001dc 000001b4H .idata$5                DATA
 0005:00000390 00000790H .idata$6                DATA
 0006:00000000 00000169H .rsrc$01                DATA
 0006:00000170 000004d3H .rsrc$02                DATA

  Address         Publics by Value              Rva+Base       Lib:Object

 0000:00000000       ___safe_se_handler_count   00000000     <absolute>
 0000:00000000       __except_list              00000000     <absolute>
 0000:00000000       ___safe_se_handler_table   00000000     <absolute>
 0000:00000000       ___ImageBase               10000000     <linker-defined>
 0001:00000000       __enc$textbss$begin        10001000     <linker-defined>
 0001:00037545       __enc$textbss$end          10038545     <linker-defined>
 0002:00002a40       _longest_match             1003ba40 f   match686.obj
 0002:00002c28       _match_init                1003bc28 f   match686.obj
 0002:00002db0       _inflate_fast              1003bdb0 f   inffas32.obj
 0002:00003630       _adler32@12                1003c630 f   adler32.obj
 0002:00003be0       _adler32_combine@12        1003cbe0 f   adler32.obj
 0002:00003d60       _adler32_combine64@16      1003cd60 f   adler32.obj
 0002:00003da0       _compress2@20              1003cda0 f   compress.obj
 0002:00003ea0       _compress@16               1003cea0 f   compress.obj
 0002:00003ee0       _compressBound@4           1003cee0 f   compress.obj
 0002:00003f20       _get_crc_table@0           1003cf20 f   crc32.obj
 0002:00003f40       _crc32@12                  1003cf40 f   crc32.obj
 0002:00004c40       _crc32_combine@12          1003dc40 f   crc32.obj
 0002:00004f30       _crc32_combine64@16        1003df30 f   crc32.obj
 0002:00004f70       _deflateInit_@16           1003df70 f   deflate.obj
 0002:00004fb0       _deflateInit2_@32          1003dfb0 f   deflate.obj
 0002:000053c0       _deflateSetDictionary@12   1003e3c0 f   deflate.obj
 0002:000056d0       _deflateResetKeep@4        1003e6d0 f   deflate.obj
 0002:00005810       _deflateReset@4            1003e810 f   deflate.obj
 0002:00005860       _deflateSetHeader@8        1003e860 f   deflate.obj
 0002:000058c0       _deflatePending@12         1003e8c0 f   deflate.obj
 0002:00005930       _deflatePrime@12           1003e930 f   deflate.obj
 0002:00005a50       _deflateParams@12          1003ea50 f   deflate.obj
 0002:00005bd0       _deflateTune@20            1003ebd0 f   deflate.obj
 0002:00005c50       _deflateBound@8            1003ec50 f   deflate.obj
 0002:00005e30       _deflate@8                 1003ee30 f   deflate.obj
 0002:00007240       _deflateEnd@4              10040240 f   deflate.obj
 0002:000073d0       _deflateCopy@8             100403d0 f   deflate.obj
 0002:00009c00       _gzclose@4                 10042c00 f   gzclose.obj
 0002:00009c70       _gzopen@8                  10042c70 f   gzlib.obj
 0002:0000a280       _gzopen64@8                10043280 f   gzlib.obj
 0002:0000a2b0       _gzdopen@8                 100432b0 f   gzlib.obj
 0002:0000a340       _gzopen_w@8                10043340 f   gzlib.obj
 0002:0000a370       _gzbuffer@8                10043370 f   gzlib.obj
 0002:0000a3f0       _gzrewind@4                100433f0 f   gzlib.obj
 0002:0000a4a0       _gzseek64@16               100434a0 f   gzlib.obj
 0002:0000a840       _gzseek@12                 10043840 f   gzlib.obj
 0002:0000a8b0       _gztell64@4                100438b0 f   gzlib.obj
 0002:0000a950       _gztell@4                  10043950 f   gzlib.obj
 0002:0000a9b0       _gzoffset64@4              100439b0 f   gzlib.obj
 0002:0000aa80       _gzoffset@4                10043a80 f   gzlib.obj
 0002:0000aae0       _gzeof@4                   10043ae0 f   gzlib.obj
 0002:0000ab60       _gzerror@8                 10043b60 f   gzlib.obj
 0002:0000abf0       _gzclearerr@4              10043bf0 f   gzlib.obj
 0002:0000ac80       _gz_error                  10043c80 f   gzlib.obj
 0002:0000add0       _gzread@12                 10043dd0 f   gzread.obj
 0002:0000b920       _gzgetc@4                  10044920 f   gzread.obj
 0002:0000ba20       _gzgetc_@4                 10044a20 f   gzread.obj
 0002:0000ba50       _gzungetc@8                10044a50 f   gzread.obj
 0002:0000bc90       _gzgets@12                 10044c90 f   gzread.obj
 0002:0000bea0       _gzdirect@4                10044ea0 f   gzread.obj
 0002:0000bf10       _gzclose_r@4               10044f10 f   gzread.obj
 0002:0000c030       _gzwrite@12                10045030 f   gzwrite.obj
 0002:0000c7e0       _gzputc@8                  100457e0 f   gzwrite.obj
 0002:0000c940       _gzputs@8                  10045940 f   gzwrite.obj
 0002:0000c9b0       _gzprintf                  100459b0 f   gzwrite.obj
 0002:0000cb60       _gzflush@8                 10045b60 f   gzwrite.obj
 0002:0000cc30       _gzsetparams@12            10045c30 f   gzwrite.obj
 0002:0000cd60       _gzclose_w@4               10045d60 f   gzwrite.obj
 0002:0000ced0       _inflateBackInit_@20       10045ed0 f   infback.obj
 0002:0000d020       _inflateBack@20            10046020 f   infback.obj
 0002:0000e8f0       _inflateBackEnd@4          100478f0 f   infback.obj
 0002:0000e960       _inflateResetKeep@4        10047960 f   inflate.obj
 0002:0000eaa0       _inflateReset@4            10047aa0 f   inflate.obj
 0002:0000eb10       _inflateReset2@8           10047b10 f   inflate.obj
 0002:0000ec20       _inflateInit2_@16          10047c20 f   inflate.obj
 0002:0000ed60       _inflateInit_@12           10047d60 f   inflate.obj
 0002:0000ed90       _inflatePrime@12           10047d90 f   inflate.obj
 0002:0000ee60       _inflate@8                 10047e60 f   inflate.obj
 0002:00011980       _inflateEnd@4              1004a980 f   inflate.obj
 0002:00011a30       _inflateSetDictionary@12   1004aa30 f   inflate.obj
 0002:00011b70       _inflateGetHeader@8        1004ab70 f   inflate.obj
 0002:00011be0       _inflateSync@4             1004abe0 f   inflate.obj
 0002:00011e90       _inflateSyncPoint@4        1004ae90 f   inflate.obj
 0002:00011f00       _inflateCopy@8             1004af00 f   inflate.obj
 0002:00012140       _inflateUndermine@8        1004b140 f   inflate.obj
 0002:000121b0       _inflateMark@4             1004b1b0 f   inflate.obj
 0002:00012250       _inflate_table             1004b250 f   inftrees.obj
 0002:00012980       _call_zopen64              1004b980 f   ioapi.obj
 0002:000129f0       _call_zseek64              1004b9f0 f   ioapi.obj
 0002:00012aa0       _call_ztell64              1004baa0 f   ioapi.obj
 0002:00012b20       _fill_zlib_filefunc64_32_def_from_filefunc32 1004bb20 f   ioapi.obj
 0002:00012be0       _fill_fopen_filefunc       1004bbe0 f   ioapi.obj
 0002:00012eb0       _fill_fopen64_filefunc     1004beb0 f   ioapi.obj
 0002:000130b0       _win32_open64_file_func    1004c0b0 f   iowin32.obj
 0002:00013280       _win32_open64_file_funcA   1004c280 f   iowin32.obj
 0002:00013310       _win32_open64_file_funcW   1004c310 f   iowin32.obj
 0002:000133a0       _win32_open_file_func      1004c3a0 f   iowin32.obj
 0002:00013430       _win32_read_file_func      1004c430 f   iowin32.obj
 0002:000134c0       _win32_write_file_func     1004c4c0 f   iowin32.obj
 0002:00013550       _win32_tell_file_func      1004c550 f   iowin32.obj
 0002:000135e0       _win32_tell64_file_func    1004c5e0 f   iowin32.obj
 0002:000136b0       _win32_seek_file_func      1004c6b0 f   iowin32.obj
 0002:000137a0       _win32_seek64_file_func    1004c7a0 f   iowin32.obj
 0002:000138a0       _win32_close_file_func     1004c8a0 f   iowin32.obj
 0002:00013900       _win32_error_file_func     1004c900 f   iowin32.obj
 0002:00013940       _fill_win32_filefunc       1004c940 f   iowin32.obj
 0002:000139c0       _fill_win32_filefunc64     1004c9c0 f   iowin32.obj
 0002:00013a40       _fill_win32_filefunc64A    1004ca40 f   iowin32.obj
 0002:00013ac0       _fill_win32_filefunc64W    1004cac0 f   iowin32.obj
 0002:00013b40       __tr_init                  1004cb40 f   trees.obj
 0002:00013d30       __tr_stored_block          1004cd30 f   trees.obj
 0002:00013ec0       __tr_flush_bits            1004cec0 f   trees.obj
 0002:00013ef0       __tr_align                 1004cef0 f   trees.obj
 0002:000141e0       __tr_flush_block           1004d1e0 f   trees.obj
 0002:00016860       __tr_tally                 1004f860 f   trees.obj
 0002:000178b0       _uncompress@16             100508b0 f   uncompr.obj
 0002:000179b0       _unzStringFileNameCompare@12 100509b0 f   unzip.obj
 0002:00017b00       _unzOpen2@8                10050b00 f   unzip.obj
 0002:00018ef0       _unzOpen2_64@8             10051ef0 f   unzip.obj
 0002:00018f60       _unzOpen@4                 10051f60 f   unzip.obj
 0002:00018f90       _unzOpen64@4               10051f90 f   unzip.obj
 0002:00018fc0       _unzClose@4                10051fc0 f   unzip.obj
 0002:00019040       _unzGetGlobalInfo64@8      10052040 f   unzip.obj
 0002:000190a0       _unzGetGlobalInfo@8        100520a0 f   unzip.obj
 0002:000190f0       _unzGetCurrentFileInfo64@32 100520f0 f   unzip.obj
 0002:00019b00       _unzGetCurrentFileInfo@32  10052b00 f   unzip.obj
 0002:00019c40       _unzGoToFirstFile@4        10052c40 f   unzip.obj
 0002:00019d00       _unzGoToNextFile@4         10052d00 f   unzip.obj
 0002:00019e80       _unzLocateFile@12          10052e80 f   unzip.obj
 0002:0001a040       _unzGetFilePos64@8         10053040 f   unzip.obj
 0002:0001a0d0       _unzGetFilePos@8           100530d0 f   unzip.obj
 0002:0001a120       _unzGoToFilePos64@8        10053120 f   unzip.obj
 0002:0001a1e0       _unzGoToFilePos@8          100531e0 f   unzip.obj
 0002:0001a240       _unzOpenCurrentFile3@20    10053240 f   unzip.obj
 0002:0001aac0       _unzOpenCurrentFile@4      10053ac0 f   unzip.obj
 0002:0001aaf0       _unzOpenCurrentFilePassword@8 10053af0 f   unzip.obj
 0002:0001ab20       _unzOpenCurrentFile2@16    10053b20 f   unzip.obj
 0002:0001ab60       _unzGetCurrentFileZStreamPos64@4 10053b60 f   unzip.obj
 0002:0001abd0       _unzReadCurrentFile@12     10053bd0 f   unzip.obj
 0002:0001b200       _unztell@4                 10054200 f   unzip.obj
 0002:0001b260       _unztell64@4               10054260 f   unzip.obj
 0002:0001b2c0       _unzeof@4                  100542c0 f   unzip.obj
 0002:0001b340       _unzGetLocalExtrafield@12  10054340 f   unzip.obj
 0002:0001b4a0       _unzCloseCurrentFile@4     100544a0 f   unzip.obj
 0002:0001b5c0       _unzGetGlobalComment@12    100545c0 f   unzip.obj
 0002:0001b6c0       _unzGetOffset64@4          100546c0 f   unzip.obj
 0002:0001b790       _unzGetOffset@4            10054790 f   unzip.obj
 0002:0001b7d0       _unzSetOffset64@12         100547d0 f   unzip.obj
 0002:0001b880       _unzSetOffset@8            10054880 f   unzip.obj
 0002:0001b8b0       _LoadCentralDirectoryRecord 100548b0 f   zip.obj
 0002:0001ce40       _zipOpen3@16               10055e40 f   zip.obj
 0002:0001d0c0       _zipOpen2@16               100560c0 f   zip.obj
 0002:0001d130       _zipOpen2_64@16            10056130 f   zip.obj
 0002:0001d1b0       _zipOpen@8                 100561b0 f   zip.obj
 0002:0001d1e0       _zipOpen64@8               100561e0 f   zip.obj
 0002:0001d210       _Write_LocalFileHeader     10056210 f   zip.obj
 0002:0001d760       _zipOpenNewFileInZip4_64@76 10056760 f   zip.obj
 0002:0001e5e0       _zipOpenNewFileInZip4@72   100575e0 f   zip.obj
 0002:0001e660       _zipOpenNewFileInZip3@64   10057660 f   zip.obj
 0002:0001e6e0       _zipOpenNewFileInZip3_64@68 100576e0 f   zip.obj
 0002:0001e760       _zipOpenNewFileInZip2@44   10057760 f   zip.obj
 0002:0001e7d0       _zipOpenNewFileInZip2_64@48 100577d0 f   zip.obj
 0002:0001e840       _zipOpenNewFileInZip64@44  10057840 f   zip.obj
 0002:0001e8b0       _zipOpenNewFileInZip@40    100578b0 f   zip.obj
 0002:0001e920       _zipWriteInFileInZip@12    10057920 f   zip.obj
 0002:0001ed40       _zipCloseFileInZipRaw@12   10057d40 f   zip.obj
 0002:0001ed70       _zipCloseFileInZipRaw64@16 10057d70 f   zip.obj
 0002:0001f640       _zipCloseFileInZip@4       10058640 f   zip.obj
 0002:0001f670       _Write_Zip64EndOfCentralDirectoryLocator 10058670 f   zip.obj
 0002:0001f760       _Write_Zip64EndOfCentralDirectoryRecord 10058760 f   zip.obj
 0002:0001f980       _Write_EndOfCentralDirectoryRecord 10058980 f   zip.obj
 0002:0001fc00       _Write_GlobalComment       10058c00 f   zip.obj
 0002:0001fcc0       _zipClose@8                10058cc0 f   zip.obj
 0002:00020000       _zipRemoveExtraInfoBlock@12 10059000 f   zip.obj
 0002:00020180       _zlibVersion@0             10059180 f   zutil.obj
 0002:000201a0       _zlibCompileFlags@0        100591a0 f   zutil.obj
 0002:00020310       _zError@4                  10059310 f   zutil.obj
 0002:00020340       _zcalloc                   10059340 f   zutil.obj
 0002:00020380       _zcfree                    10059380 f   zutil.obj
 0002:000203a4       _CreateFileA@28            100593a4 f   kernel32:KERNEL32.dll
 0002:000203aa       _CloseHandle@4             100593aa f   kernel32:KERNEL32.dll
 0002:000203b0       _CreateFileW@28            100593b0 f   kernel32:KERNEL32.dll
 0002:000203b6       _GetLastError@0            100593b6 f   kernel32:KERNEL32.dll
 0002:000203bc       _ReadFile@20               100593bc f   kernel32:KERNEL32.dll
 0002:000203c2       _WriteFile@20              100593c2 f   kernel32:KERNEL32.dll
 0002:000203c8       _SetFilePointer@16         100593c8 f   kernel32:KERNEL32.dll
 0002:000203d0       __allrem                   100593d0 f   LIBCMTD:llrem.obj
 0002:000204b0       __allshr                   100594b0 f   LIBCMTD:llshr.obj
 0002:000204e0       _memset                    100594e0 f   LIBCMTD:memset.obj
 0002:00020580       _memcpy                    10059580 f   LIBCMTD:memcpy.obj
 0002:000209c0       __lseeki64                 100599c0 f   LIBCMTD:lseeki64.obj
 0002:00020ca0       __lseeki64_nolock          10059ca0 f   LIBCMTD:lseeki64.obj
 0002:00020dd0       __wopen                    10059dd0 f   LIBCMTD:wopen.obj
 0002:00020fb0       __wsopen_helper            10059fb0 f   LIBCMTD:wopen.obj
 0002:000226a0       __invoke_watson_if_error   1005b6a0 f i LIBCMTD:wopen.obj
 0002:000226e0       __wsopen                   1005b6e0 f   LIBCMTD:wopen.obj
 0002:00022770       __wsopen_s                 1005b770 f   LIBCMTD:wopen.obj
 0002:000227a0       _strcpy                    1005b7a0 f   LIBCMTD:strcat.obj
 0002:000227b0       _strcat                    1005b7b0 f   LIBCMTD:strcat.obj
 0002:000228e0       _strlen                    1005b8e0 f   LIBCMTD:strlen.obj
 0002:00022990       __wcstombs_l_helper        1005b990 f   LIBCMTD:wcstombs.obj
 0002:00022fb0       ??0_LocaleUpdate@@QAE@PAUlocaleinfo_struct@@@Z 1005bfb0 f i LIBCMTD:wcstombs.obj
 0002:000230c0       ??1_LocaleUpdate@@QAE@XZ   1005c0c0 f i LIBCMTD:wcstombs.obj
 0002:00023100       ?GetLocaleT@_LocaleUpdate@@QAEPAUlocaleinfo_struct@@XZ 1005c100 f i LIBCMTD:wcstombs.obj
 0002:000231a0       __wcstombs_l               1005c1a0 f   LIBCMTD:wcstombs.obj
 0002:000231d0       _wcstombs                  1005c1d0 f   LIBCMTD:wcstombs.obj
 0002:00023200       __wcstombs_s_l             1005c200 f   LIBCMTD:wcstombs.obj
 0002:000235f0       _wcstombs_s                1005c5f0 f   LIBCMTD:wcstombs.obj
 0002:00023620       _free                      1005c620 f   LIBCMTD:dbgfree.obj
 0002:00023640       _malloc                    1005c640 f   LIBCMTD:dbgmalloc.obj
 0002:00023680       _sprintf                   1005c680 f   LIBCMTD:sprintf.obj
 0002:00023880       __sprintf_l                1005c880 f   LIBCMTD:sprintf.obj
 0002:000238c0       _sprintf_s                 1005c8c0 f   LIBCMTD:sprintf.obj
 0002:00023900       __sprintf_s_l              1005c900 f   LIBCMTD:sprintf.obj
 0002:00023940       __snprintf_s               1005c940 f   LIBCMTD:sprintf.obj
 0002:00023980       __snprintf_s_l             1005c980 f   LIBCMTD:sprintf.obj
 0002:000239c0       __sprintf_p                1005c9c0 f   LIBCMTD:sprintf.obj
 0002:00023a00       __sprintf_p_l              1005ca00 f   LIBCMTD:sprintf.obj
 0002:00023a40       __scprintf                 1005ca40 f   LIBCMTD:sprintf.obj
 0002:00023a70       __scprintf_p               1005ca70 f   LIBCMTD:sprintf.obj
 0002:00023aa0       __scprintf_l               1005caa0 f   LIBCMTD:sprintf.obj
 0002:00023ad0       __scprintf_p_l             1005cad0 f   LIBCMTD:sprintf.obj
 0002:00023b00       _strerror                  1005cb00 f   LIBCMTD:strerror.obj
 0002:00023bd0       __get_sys_err_msg          1005cbd0 f i LIBCMTD:strerror.obj
 0002:00023c20       _strerror_s                1005cc20 f   LIBCMTD:strerror.obj
 0002:00023d90       __dosmaperr                1005cd90 f   LIBCMTD:dosmap.obj
 0002:00023dd0       __get_errno_from_oserr     1005cdd0 f   LIBCMTD:dosmap.obj
 0002:00023e70       __set_errno                1005ce70 f   LIBCMTD:dosmap.obj
 0002:00023eb0       __get_errno                1005ceb0 f   LIBCMTD:dosmap.obj
 0002:00023f50       __set_doserrno             1005cf50 f   LIBCMTD:dosmap.obj
 0002:00023f90       __get_doserrno             1005cf90 f   LIBCMTD:dosmap.obj
 0002:00024030       __errno                    1005d030 f   LIBCMTD:dosmap.obj
 0002:00024060       ___doserrno                1005d060 f   LIBCMTD:dosmap.obj
 0002:00024090       _memchr                    1005d090 f   LIBCMTD:memchr.obj
 0002:00024170       __fsopen                   1005d170 f   LIBCMTD:fopen.obj
 0002:00024400       _fopen                     1005d400 f   LIBCMTD:fopen.obj
 0002:00024420       _fopen_s                   1005d420 f   LIBCMTD:fopen.obj
 0002:000244f0       _fread_s                   1005d4f0 f   LIBCMTD:fread.obj
 0002:00024670       __fread_nolock_s           1005d670 f   LIBCMTD:fread.obj
 0002:00024dc0       _fread                     1005ddc0 f   LIBCMTD:fread.obj
 0002:00024df0       __fread_nolock             1005ddf0 f   LIBCMTD:fread.obj
 0002:00024e20       _fwrite                    1005de20 f   LIBCMTD:fwrite.obj
 0002:00024f70       __fwrite_nolock            1005df70 f   LIBCMTD:fwrite.obj
 0002:00025430       _ftell                     1005e430 f   LIBCMTD:ftell.obj
 0002:00025550       __ftell_nolock             1005e550 f   LIBCMTD:ftell.obj
 0002:000258d0       _fseek                     1005e8d0 f   LIBCMTD:fseek.obj
 0002:00025aa0       __fseek_nolock             1005eaa0 f   LIBCMTD:fseek.obj
 0002:00025bc0       _fclose                    1005ebc0 f   LIBCMTD:fclose.obj
 0002:00025d10       __fclose_nolock            1005ed10 f   LIBCMTD:fclose.obj
 0002:00025e50       _feof                      1005ee50 f   LIBCMTD:feoferr.obj
 0002:00025ee0       _ferror                    1005eee0 f   LIBCMTD:feoferr.obj
 0002:00025f70       __ftelli64                 1005ef70 f   LIBCMTD:ftelli64.obj
 0002:000260a0       __ftelli64_nolock          1005f0a0 f   LIBCMTD:ftelli64.obj
 0002:00026790       __fseeki64                 1005f790 f   LIBCMTD:fseeki64.obj
 0002:00026960       __fseeki64_nolock          1005f960 f   LIBCMTD:fseeki64.obj
 0002:00026af0       _strcmp                    1005faf0 f   LIBCMTD:strcmp.obj
 0002:00026ba0       __allshl                   1005fba0 f   LIBCMTD:llshl.obj
 0002:00026bd0       __allmul                   1005fbd0 f   LIBCMTD:llmul.obj
 0002:00026c20       __aulldiv                  1005fc20 f   LIBCMTD:ulldiv.obj
 0002:00026cb0       __aullshr                  1005fcb0 f   LIBCMTD:ullshr.obj
 0002:00026ce0       __alloca_probe             1005fce0     LIBCMTD:chkstk.obj
 0002:00026ce0       __chkstk                   1005fce0 f   LIBCMTD:chkstk.obj
 0002:00026d20       _srand                     1005fd20 f   LIBCMTD:rand.obj
 0002:00026d40       _rand                      1005fd40 f   LIBCMTD:rand.obj
 0002:00026d90       __time64                   1005fd90 f   LIBCMTD:time64.obj
 0002:00026e30       __CRT_INIT@12              1005fe30 f   LIBCMTD:dllcrt0.obj
 0002:000270d0       __DllMainCRTStartup@12     100600d0 f   LIBCMTD:dllcrt0.obj
 0002:00027330       __VEC_memzero              10060330 f   LIBCMTD:p4_memset.obj
 0002:00027420       ___sse2_available_init     10060420 f   LIBCMTD:cpu_disp.obj
 0002:00027440       __VEC_memcpy               10060440 f   LIBCMTD:p4_memcpy.obj
 0002:00027590       __alloc_osfhnd             10060590 f   LIBCMTD:osfinfo.obj
 0002:000278f0       __set_osfhnd               100608f0 f   LIBCMTD:osfinfo.obj
 0002:000279f0       __free_osfhnd              100609f0 f   LIBCMTD:osfinfo.obj
 0002:00027b10       __get_osfhandle            10060b10 f   LIBCMTD:osfinfo.obj
 0002:00027cd0       __open_osfhandle           10060cd0 f   LIBCMTD:osfinfo.obj
 0002:00027f90       ___lock_fhandle            10060f90 f   LIBCMTD:osfinfo.obj
 0002:000280d0       __unlock_fhandle           100610d0 f   LIBCMTD:osfinfo.obj
 0002:00028110       __ioinit                   10061110 f   LIBCMTD:ioinit.obj
 0002:00028630       __ioterm                   10061630 f   LIBCMTD:ioinit.obj
 0002:00028700       __initp_misc_invarg        10061700 f   LIBCMTD:invarg.obj
 0002:00028720       __invalid_parameter        10061720 f   LIBCMTD:invarg.obj
 0002:00028790       __invoke_watson            10061790 f   LIBCMTD:invarg.obj
 0002:000287d0       __call_reportfault         100617d0 f   LIBCMTD:invarg.obj
 0002:00028980       __set_invalid_parameter_handler 10061980 f   LIBCMTD:invarg.obj
 0002:000289d0       __get_invalid_parameter_handler 100619d0 f   LIBCMTD:invarg.obj
 0002:00028a10       ?_invalid_parameter@@YAXPBG00II@Z 10061a10 f   LIBCMTD:invarg.obj
 0002:00028a40       ?_invoke_watson@@YAXPBG00II@Z 10061a40 f   LIBCMTD:invarg.obj
 0002:00028a70       __CrtSetReportHookW2       10061a70 f   LIBCMTD:dbgrptw.obj
 0002:00028e60       __CrtDbgReportW            10061e60 f   LIBCMTD:dbgrptw.obj
 0002:00028eb0       __CrtDbgReportWV           10061eb0 f i LIBCMTD:dbgrptw.obj
 0002:00028ee0       ___crtMessageWindowW       10061ee0 f   LIBCMTD:dbgrptw.obj
 0002:000293e0       __invoke_watson_if_oneof   100623e0 f i LIBCMTD:dbgrptw.obj
 0002:00029430       ?_CrtDbgReportW@@YAHHPBGH00ZZ 10062430 f   LIBCMTD:dbgrptw.obj
 0002:00029480       __except_handler4          10062480 f   LIBCMTD:chandler4.obj
 0002:00029730       _write                     10062730 f   LIBCMTD:write.obj
 0002:00029730       __write                    10062730 f   LIBCMTD:write.obj
 0002:000299e0       __write_nolock             100629e0 f   LIBCMTD:write.obj
 0002:0002a7f0       __chsize_s                 100637f0 f   LIBCMTD:chsize.obj
 0002:0002ab30       __chsize_nolock            10063b30 f   LIBCMTD:chsize.obj
 0002:0002ae70       __chsize                   10063e70 f   LIBCMTD:chsize.obj
 0002:0002aea0       __read                     10063ea0 f   LIBCMTD:read.obj
 0002:0002aea0       _read                      10063ea0 f   LIBCMTD:read.obj
 0002:0002b1e0       __read_nolock              100641e0 f   LIBCMTD:read.obj
 0002:0002c500       __close                    10065500 f   LIBCMTD:close.obj
 0002:0002c500       _close                     10065500 f   LIBCMTD:close.obj
 0002:0002c7a0       __close_nolock             100657a0 f   LIBCMTD:close.obj
 0002:0002c8a0       __lseek                    100658a0 f   LIBCMTD:lseek.obj
 0002:0002cb50       __lseek_nolock             10065b50 f   LIBCMTD:lseek.obj
 0002:0002cc60       __cinit                    10065c60 f   LIBCMTD:crt0dat.obj
 0002:0002cd30       _exit                      10065d30 f   LIBCMTD:crt0dat.obj
 0002:0002cd50       __exit                     10065d50 f   LIBCMTD:crt0dat.obj
 0002:0002cd70       __cexit                    10065d70 f   LIBCMTD:crt0dat.obj
 0002:0002cd90       __c_exit                   10065d90 f   LIBCMTD:crt0dat.obj
 0002:0002cdb0       __amsg_exit                10065db0 f   LIBCMTD:crt0dat.obj
 0002:0002cde0       ___freeCrtMemory           10065de0 f   LIBCMTD:crt0dat.obj
 0002:0002d1f0       ___crtCorExitProcess       100661f0 f   LIBCMTD:crt0dat.obj
 0002:0002d240       ___crtExitProcess          10066240 f   LIBCMTD:crt0dat.obj
 0002:0002d270       __lockexit                 10066270 f   LIBCMTD:crt0dat.obj
 0002:0002d290       __unlockexit               10066290 f   LIBCMTD:crt0dat.obj
 0002:0002d2b0       __init_pointers            100662b0 f   LIBCMTD:crt0dat.obj
 0002:0002d360       __initterm_e               10066360 f   LIBCMTD:crt0dat.obj
 0002:0002d3b0       __get_wpgmptr              100663b0 f   LIBCMTD:crt0dat.obj
 0002:0002d4e0       __get_pgmptr               100664e0 f   LIBCMTD:crt0dat.obj
 0002:0002d610       __setmode                  10066610 f   LIBCMTD:setmode.obj
 0002:0002d940       __setmode_nolock           10066940 f   LIBCMTD:setmode.obj
 0002:0002dc40       __set_fmode                10066c40 f   LIBCMTD:setmode.obj
 0002:0002dd20       __get_fmode                10066d20 f   LIBCMTD:setmode.obj
 0002:0002ddc0       @__security_check_cookie@4 10066dc0 f   LIBCMTD:secchk.obj
 0002:0002dde0       ___updatetmbcinfo          10066de0 f   LIBCMTD:mbctype.obj
 0002:0002df30       __setmbcp                  10066f30 f   LIBCMTD:mbctype.obj
 0002:0002e3c0       __setmbcp_nolock           100673c0 f   LIBCMTD:mbctype.obj
 0002:0002eda0       __getmbcp                  10067da0 f   LIBCMTD:mbctype.obj
 0002:0002ee30       ___initmbctable            10067e30 f   LIBCMTD:mbctype.obj
 0002:0002ee60       ___addlocaleref            10067e60 f   LIBCMTD:localref.obj
 0002:0002efd0       ___removelocaleref         10067fd0 f   LIBCMTD:localref.obj
 0002:0002f150       ___freetlocinfo            10068150 f   LIBCMTD:localref.obj
 0002:0002f4f0       __updatetlocinfoEx_nolock  100684f0 f   LIBCMTD:localref.obj
 0002:0002f590       ___updatetlocinfo          10068590 f   LIBCMTD:localref.obj
 0002:0002f690       __encoded_null             10068690 f   LIBCMTD:tidtable.obj
 0002:0002f6b0       ___crtTlsAlloc@4           100686b0 f   LIBCMTD:tidtable.obj
 0002:0002f6d0       ___fls_getvalue@4          100686d0 f   LIBCMTD:tidtable.obj
 0002:0002f700       ___get_flsindex            10068700 f   LIBCMTD:tidtable.obj
 0002:0002f710       ___set_flsgetvalue         10068710 f   LIBCMTD:tidtable.obj
 0002:0002f770       ___fls_setvalue@8          10068770 f   LIBCMTD:tidtable.obj
 0002:0002f7a0       __mtinit                   100687a0 f   LIBCMTD:tidtable.obj
 0002:0002fa20       __mtterm                   10068a20 f   LIBCMTD:tidtable.obj
 0002:0002fa90       __initptd                  10068a90 f   LIBCMTD:tidtable.obj
 0002:0002fc00       __getptd_noexit            10068c00 f   LIBCMTD:tidtable.obj
 0002:0002fcf0       __getptd                   10068cf0 f   LIBCMTD:tidtable.obj
 0002:0002fd20       __freefls@4                10068d20 f   LIBCMTD:tidtable.obj
 0002:0002ffb0       __freeptd                  10068fb0 f   LIBCMTD:tidtable.obj
 0002:00030050       ___threadid                10069050 f   LIBCMTD:tidtable.obj
 0002:00030060       ___threadhandle            10069060 f   LIBCMTD:tidtable.obj
 0002:00030070       __malloc_dbg               10069070 f   LIBCMTD:dbgheap.obj
 0002:000300b0       __nh_malloc                100690b0 f   LIBCMTD:dbgheap.obj
 0002:000300e0       __nh_malloc_dbg            100690e0 f   LIBCMTD:dbgheap.obj
 0002:000301e0       __heap_alloc               100691e0 f   LIBCMTD:dbgheap.obj
 0002:000306b0       __heap_alloc_dbg           100696b0 f   LIBCMTD:dbgheap.obj
 0002:00030720       __calloc_dbg_impl          10069720 f   LIBCMTD:dbgheap.obj
 0002:000307c0       __calloc_dbg               100697c0 f   LIBCMTD:dbgheap.obj
 0002:00030830       __recalloc                 10069830 f   LIBCMTD:dbgheap.obj
 0002:00030870       __realloc_dbg              10069870 f   LIBCMTD:dbgheap.obj
 0002:000310b0       __recalloc_dbg             1006a0b0 f   LIBCMTD:dbgheap.obj
 0002:00031190       __expand                   1006a190 f   LIBCMTD:dbgheap.obj
 0002:000311c0       __expand_dbg               1006a1c0 f   LIBCMTD:dbgheap.obj
 0002:00031310       __free_nolock              1006a310 f   LIBCMTD:dbgheap.obj
 0002:00031330       __free_dbg                 1006a330 f   LIBCMTD:dbgheap.obj
 0002:000313d0       __free_dbg_nolock          1006a3d0 f   LIBCMTD:dbgheap.obj
 0002:000319f0       __msize                    1006a9f0 f   LIBCMTD:dbgheap.obj
 0002:00031a10       __msize_dbg                1006aa10 f   LIBCMTD:dbgheap.obj
 0002:00031c70       __CrtSetBreakAlloc         1006ac70 f   LIBCMTD:dbgheap.obj
 0002:00031ca0       __CrtSetDbgBlockType       1006aca0 f   LIBCMTD:dbgheap.obj
 0002:00031dc0       __CrtSetAllocHook          1006adc0 f   LIBCMTD:dbgheap.obj
 0002:00031df0       __CrtGetAllocHook          1006adf0 f   LIBCMTD:dbgheap.obj
 0002:00031e50       __CrtCheckMemory           1006ae50 f   LIBCMTD:dbgheap.obj
 0002:000323c0       __CrtSetDbgFlag            1006b3c0 f   LIBCMTD:dbgheap.obj
 0002:00032560       __CrtDoForAllClientObjects 1006b560 f   LIBCMTD:dbgheap.obj
 0002:000326d0       __CrtIsValidPointer        1006b6d0 f   LIBCMTD:dbgheap.obj
 0002:000326f0       __CrtIsValidHeapPointer    1006b6f0 f   LIBCMTD:dbgheap.obj
 0002:00032750       __CrtIsMemoryBlock         1006b750 f   LIBCMTD:dbgheap.obj
 0002:00032920       __CrtReportBlockType       1006b920 f   LIBCMTD:dbgheap.obj
 0002:00032960       __CrtSetDumpClient         1006b960 f   LIBCMTD:dbgheap.obj
 0002:00032990       __CrtGetDumpClient         1006b990 f   LIBCMTD:dbgheap.obj
 0002:000329a0       __CrtMemCheckpoint         1006b9a0 f   LIBCMTD:dbgheap.obj
 0002:00032c40       __CrtMemDifference         1006bc40 f   LIBCMTD:dbgheap.obj
 0002:00032ee0       __CrtMemDumpAllObjectsSince 1006bee0 f   LIBCMTD:dbgheap.obj
 0002:00033510       __CrtDumpMemoryLeaks       1006c510 f   LIBCMTD:dbgheap.obj
 0002:000335b0       __CrtMemDumpStatistics     1006c5b0 f   LIBCMTD:dbgheap.obj
 0002:00033700       __aligned_malloc           1006c700 f   LIBCMTD:dbgheap.obj
 0002:00033730       __aligned_malloc_dbg       1006c730 f   LIBCMTD:dbgheap.obj
 0002:00033760       __aligned_realloc          1006c760 f   LIBCMTD:dbgheap.obj
 0002:00033790       __aligned_recalloc         1006c790 f   LIBCMTD:dbgheap.obj
 0002:000337c0       __aligned_realloc_dbg      1006c7c0 f   LIBCMTD:dbgheap.obj
 0002:000337f0       __aligned_recalloc_dbg     1006c7f0 f   LIBCMTD:dbgheap.obj
 0002:00033830       __aligned_offset_malloc    1006c830 f   LIBCMTD:dbgheap.obj
 0002:00033860       __aligned_offset_malloc_dbg 1006c860 f   LIBCMTD:dbgheap.obj
 0002:00033a90       __aligned_offset_realloc   1006ca90 f   LIBCMTD:dbgheap.obj
 0002:00033ac0       __aligned_offset_recalloc  1006cac0 f   LIBCMTD:dbgheap.obj
 0002:00033af0       __aligned_offset_realloc_dbg 1006caf0 f   LIBCMTD:dbgheap.obj
 0002:00033ea0       __aligned_offset_recalloc_dbg 1006cea0 f   LIBCMTD:dbgheap.obj
 0002:00033f90       __aligned_free             1006cf90 f   LIBCMTD:dbgheap.obj
 0002:00033fb0       __aligned_free_dbg         1006cfb0 f   LIBCMTD:dbgheap.obj
 0002:00034090       __CrtSetDebugFillThreshold 1006d090 f   LIBCMTD:dbgheap.obj
 0002:000340c0       __CrtSetCheckCount         1006d0c0 f   LIBCMTD:dbgheap.obj
 0002:000340e0       __CrtGetCheckCount         1006d0e0 f   LIBCMTD:dbgheap.obj
 0002:000340f0       __aligned_msize            1006d0f0 f   LIBCMTD:dbgheap.obj
 0002:00034120       __aligned_msize_dbg        1006d120 f   LIBCMTD:dbgheap.obj
 0002:00034270       __flsbuf                   1006d270 f   LIBCMTD:_flsbuf.obj
 0002:000345e0       __output_l                 1006d5e0 f   LIBCMTD:output.obj
 0002:00035f60       _get_int_arg               1006ef60 f i LIBCMTD:output.obj
 0002:00035f90       _get_int64_arg             1006ef90 f i LIBCMTD:output.obj
 0002:00035fc0       _get_short_arg             1006efc0 f i LIBCMTD:output.obj
 0002:00035ff0       __vsprintf_l               1006eff0 f   LIBCMTD:vsprintf.obj
 0002:000361f0       _vsprintf                  1006f1f0 f   LIBCMTD:vsprintf.obj
 0002:00036220       __vscprintf_helper         1006f220 f   LIBCMTD:vsprintf.obj
 0002:00036330       __vscprintf                1006f330 f   LIBCMTD:vsprintf.obj
 0002:00036360       __vscprintf_l              1006f360 f   LIBCMTD:vsprintf.obj
 0002:00036390       __vscprintf_p              1006f390 f   LIBCMTD:vsprintf.obj
 0002:000363c0       __vscprintf_p_l            1006f3c0 f   LIBCMTD:vsprintf.obj
 0002:000363f0       __vsnprintf_helper         1006f3f0 f   LIBCMTD:vsnprnc.obj
 0002:00036650       __vsnprintf_c              1006f650 f   LIBCMTD:vsnprnc.obj
 0002:000366b0       __vsnprintf_c_l            1006f6b0 f   LIBCMTD:vsnprnc.obj
 0002:00036710       __vsprintf_s_l             1006f710 f   LIBCMTD:vsnprnc.obj
 0002:00036a10       _vsprintf_s                1006fa10 f   LIBCMTD:vsnprnc.obj
 0002:00036a40       __vsnprintf_s_l            1006fa40 f   LIBCMTD:vsnprnc.obj
 0002:00036ec0       __vsnprintf_s              1006fec0 f   LIBCMTD:vsnprnc.obj
 0002:00036ef0       __vsprintf_p               1006fef0 f   LIBCMTD:vsnprnc.obj
 0002:00036f50       __vsprintf_p_l             1006ff50 f   LIBCMTD:vsnprnc.obj
 0002:00036fb0       _strcpy_s                  1006ffb0 f   LIBCMTD:strcpy_s.obj
 0002:00037340       ___sys_nerr                10070340 f   LIBCMTD:syserr.obj
 0002:00037350       ___sys_errlist             10070350 f   LIBCMTD:syserr.obj
 0002:00037360       _strncpy_s                 10070360 f   LIBCMTD:strncpy_s.obj
 0002:00037850       __vsnprintf_l              10070850 f   LIBCMTD:vsnprint.obj
 0002:00037a80       _vsnprintf                 10070a80 f   LIBCMTD:vsnprint.obj
 0002:00037a80       __vsnprintf                10070a80 f   LIBCMTD:vsnprint.obj
 0002:00037ab0       ___iob_func                10070ab0 f   LIBCMTD:_file.obj
 0002:00037ac0       ___initstdio               10070ac0 f   LIBCMTD:_file.obj
 0002:00037c60       ___endstdio                10070c60 f   LIBCMTD:_file.obj
 0002:00037ca0       __lock_file                10070ca0 f   LIBCMTD:_file.obj
 0002:00037d10       __lock_file2               10070d10 f   LIBCMTD:_file.obj
 0002:00037d60       __unlock_file              10070d60 f   LIBCMTD:_file.obj
 0002:00037dd0       __unlock_file2             10070dd0 f   LIBCMTD:_file.obj
 0002:00037e20       __openfile                 10070e20 f   LIBCMTD:_open.obj
 0002:000387d0       __getstream                100717d0 f   LIBCMTD:stream.obj
 0002:00038ad0       __local_unwind4            10071ad0 f   LIBCMTD:exsup4.obj
 0002:00038ba6       __seh_longjmp_unwind4@4    10071ba6 f   LIBCMTD:exsup4.obj
 0002:00038bc2       @_EH4_CallFilterFunc@8     10071bc2 f   LIBCMTD:exsup4.obj
 0002:00038bd9       @_EH4_TransferToHandler@8  10071bd9 f   LIBCMTD:exsup4.obj
 0002:00038bf2       @_EH4_GlobalUnwind2@8      10071bf2 f   LIBCMTD:exsup4.obj
 0002:00038c0b       @_EH4_LocalUnwind@16       10071c0b f   LIBCMTD:exsup4.obj
 0002:00038c80       __filbuf                   10071c80 f   LIBCMTD:_filbuf.obj
 0002:00038f60       __fileno                   10071f60 f   LIBCMTD:fileno.obj
 0002:00038ff0       _memcpy_s                  10071ff0 f   LIBCMTD:memcpy_s.obj
 0002:000391e0       _fflush                    100721e0 f   LIBCMTD:fflush.obj
 0002:000392a0       __fflush_nolock            100722a0 f   LIBCMTD:fflush.obj
 0002:00039310       __flush                    10072310 f   LIBCMTD:fflush.obj
 0002:00039400       __flushall                 10072400 f   LIBCMTD:fflush.obj
 0002:00039630       __freebuf                  10072630 f   LIBCMTD:_freebuf.obj
 0002:000396e0       __setenvp                  100726e0 f   LIBCMTD:stdenvp.obj
 0002:000398f0       __setargv                  100728f0 f   LIBCMTD:stdargv.obj
 0002:00039a50       __set_pgmptr               10072a50 f i LIBCMTD:stdargv.obj
 0002:00039eb0       ___crtGetEnvironmentStringsA 10072eb0 f   LIBCMTD:a_env.obj
 0002:00039ff0       __RTC_Initialize           10072ff0 f   LIBCMTD:_initsect_.obj
 0002:0003a020       __RTC_Terminate            10073020 f   LIBCMTD:_initsect_.obj
 0002:0003a050       __heap_init                10073050 f   LIBCMTD:heapinit.obj
 0002:0003a0a0       __heap_term                100730a0 f   LIBCMTD:heapinit.obj
 0002:0003a0d0       __get_heap_handle          100730d0 f   LIBCMTD:heapinit.obj
 0002:0003a110       ___security_init_cookie    10073110 f   LIBCMTD:gs_support.obj
 0002:0003a230       ___CppXcptFilter           10073230 f   LIBCMTD:winxfltr.obj
 0002:0003a260       __XcptFilter               10073260 f   LIBCMTD:winxfltr.obj
 0002:0003a550       _DllMain@12                10073550 f   LIBCMTD:dllmain.obj
 0002:0003a570       __mtinitlocks              10073570 f   LIBCMTD:mlock.obj
 0002:0003a620       __mtdeletelocks            10073620 f   LIBCMTD:mlock.obj
 0002:0003a710       __mtinitlocknum            10073710 f   LIBCMTD:mlock.obj
 0002:0003a8b0       __lock                     100738b0 f   LIBCMTD:mlock.obj
 0002:0003a900       __unlock                   10073900 f   LIBCMTD:mlock.obj
 0002:0003a920       __lockerr_exit             10073920 f   LIBCMTD:mlock.obj
 0002:0003a950       __CrtDefaultAllocHook      10073950 f   LIBCMTD:dbghook.obj
 0002:0003a960       __crt_debugger_hook        10073960 f   LIBCMTD:dbghook.obj
 0002:0003a980       __CrtDbgBreak              10073980 f   LIBCMTD:dbgrptt.obj
 0002:0003a990       __CrtSetReportMode         10073990 f   LIBCMTD:dbgrptt.obj
 0002:0003ab20       __CrtSetReportFile         10073b20 f   LIBCMTD:dbgrptt.obj
 0002:0003ac50       __CrtSetReportHook         10073c50 f   LIBCMTD:dbgrptt.obj
 0002:0003ac80       __CrtGetReportHook         10073c80 f   LIBCMTD:dbgrptt.obj
 0002:0003ac90       __VCrtDbgReportA           10073c90 f   LIBCMTD:dbgrptt.obj
 0002:0003b6c0       __VCrtDbgReportW           100746c0 f   LIBCMTD:dbgrptt.obj
 0002:0003c240       __initp_misc_winsig        10075240 f   LIBCMTD:winsig.obj
 0002:0003c280       _signal                    10075280 f   LIBCMTD:winsig.obj
 0002:0003c830       _raise                     10075830 f   LIBCMTD:winsig.obj
 0002:0003cc80       ___get_sigabrt             10075c80 f   LIBCMTD:winsig.obj
 0002:0003cca0       ___fpecode                 10075ca0 f   LIBCMTD:winsig.obj
 0002:0003ccc0       ___pxcptinfoptrs           10075cc0 f   LIBCMTD:winsig.obj
 0002:0003cce0       ___crtMessageBoxW          10075ce0 f   LIBCMTD:crtmboxw.obj
 0002:0003cf90       __swprintf                 10075f90 f   LIBCMTD:swprintf.obj
 0002:0003d210       ___swprintf_l              10076210 f   LIBCMTD:swprintf.obj
 0002:0003d250       _swprintf_s                10076250 f   LIBCMTD:swprintf.obj
 0002:0003d290       __snwprintf_s              10076290 f   LIBCMTD:swprintf.obj
 0002:0003d2d0       __swprintf_p               100762d0 f   LIBCMTD:swprintf.obj
 0002:0003d310       __swprintf_s_l             10076310 f   LIBCMTD:swprintf.obj
 0002:0003d350       __snwprintf_s_l            10076350 f   LIBCMTD:swprintf.obj
 0002:0003d390       __swprintf_p_l             10076390 f   LIBCMTD:swprintf.obj
 0002:0003d3d0       __scwprintf                100763d0 f   LIBCMTD:swprintf.obj
 0002:0003d400       __scwprintf_p              10076400 f   LIBCMTD:swprintf.obj
 0002:0003d430       __scwprintf_l              10076430 f   LIBCMTD:swprintf.obj
 0002:0003d460       __scwprintf_p_l            10076460 f   LIBCMTD:swprintf.obj
 0002:0003d490       _wcslen                    10076490 f   LIBCMTD:wcslen.obj
 0002:0003d4d0       _wcscpy_s                  100764d0 f   LIBCMTD:wcscpy_s.obj
 0002:0003d870       __ValidateImageBase        10076870 f   LIBCMTD:pesect.obj
 0002:0003d8f0       __FindPESection            100768f0 f   LIBCMTD:pesect.obj
 0002:0003d990       __IsNonwritableInCurrentImage 10076990 f   LIBCMTD:pesect.obj
 0002:0003daf0       __putwch                   10076af0 f   LIBCMTD:putwch.obj
 0002:0003dba0       __putwch_nolock            10076ba0 f   LIBCMTD:putwch.obj
 0002:0003dc10       __mbtowc_l                 10076c10 f   LIBCMTD:mbtowc.obj
 0002:0003deb0       _mbtowc                    10076eb0 f   LIBCMTD:mbtowc.obj
 0002:0003dee0       __isleadbyte_l             10076ee0 f i LIBCMTD:_wctype.obj
 0002:0003df40       _isleadbyte                10076f40 f i LIBCMTD:_wctype.obj
 0002:0003df60       __iswalpha_l               10076f60 f i LIBCMTD:_wctype.obj
 0002:0003df80       _iswalpha                  10076f80 f i LIBCMTD:_wctype.obj
 0002:0003dfa0       __iswupper_l               10076fa0 f i LIBCMTD:_wctype.obj
 0002:0003dfc0       _iswupper                  10076fc0 f i LIBCMTD:_wctype.obj
 0002:0003dfe0       __iswlower_l               10076fe0 f i LIBCMTD:_wctype.obj
 0002:0003e000       _iswlower                  10077000 f i LIBCMTD:_wctype.obj
 0002:0003e020       __iswdigit_l               10077020 f i LIBCMTD:_wctype.obj
 0002:0003e040       _iswdigit                  10077040 f i LIBCMTD:_wctype.obj
 0002:0003e060       __iswxdigit_l              10077060 f i LIBCMTD:_wctype.obj
 0002:0003e080       _iswxdigit                 10077080 f i LIBCMTD:_wctype.obj
 0002:0003e0a0       __iswspace_l               100770a0 f i LIBCMTD:_wctype.obj
 0002:0003e0c0       _iswspace                  100770c0 f i LIBCMTD:_wctype.obj
 0002:0003e0e0       __iswpunct_l               100770e0 f i LIBCMTD:_wctype.obj
 0002:0003e100       _iswpunct                  10077100 f i LIBCMTD:_wctype.obj
 0002:0003e120       __iswalnum_l               10077120 f i LIBCMTD:_wctype.obj
 0002:0003e140       _iswalnum                  10077140 f i LIBCMTD:_wctype.obj
 0002:0003e160       __iswprint_l               10077160 f i LIBCMTD:_wctype.obj
 0002:0003e180       _iswprint                  10077180 f i LIBCMTD:_wctype.obj
 0002:0003e1a0       __iswgraph_l               100771a0 f i LIBCMTD:_wctype.obj
 0002:0003e1c0       _iswgraph                  100771c0 f i LIBCMTD:_wctype.obj
 0002:0003e1e0       __iswcntrl_l               100771e0 f i LIBCMTD:_wctype.obj
 0002:0003e200       _iswcntrl                  10077200 f i LIBCMTD:_wctype.obj
 0002:0003e220       _iswascii                  10077220 f i LIBCMTD:_wctype.obj
 0002:0003e240       __iswcsym_l                10077240 f i LIBCMTD:_wctype.obj
 0002:0003e290       ___iswcsym                 10077290 f i LIBCMTD:_wctype.obj
 0002:0003e2e0       __iswcsymf_l               100772e0 f i LIBCMTD:_wctype.obj
 0002:0003e330       ___iswcsymf                10077330 f i LIBCMTD:_wctype.obj
 0002:0003e380       __isatty                   10077380 f   LIBCMTD:isatty.obj
 0002:0003e470       __onexit                   10077470 f   LIBCMTD:onexit.obj
 0002:0003e6b0       _atexit                    100776b0 f   LIBCMTD:onexit.obj
 0002:0003e6e0       ___onexitinit              100776e0 f   LIBCMTD:onexit.obj
 0002:0003e750       __initp_misc_cfltcvt_tab   10077750 f   LIBCMTD:cmiscdat.obj
 0002:0003e7a0       __FF_MSGBANNER             100777a0 f   LIBCMTD:crt0msg.obj
 0002:0003e800       __GET_RTERRMSG             10077800 f   LIBCMTD:crt0msg.obj
 0002:0003e860       __NMSG_WRITE               10077860 f   LIBCMTD:crt0msg.obj
 0002:0003ec60       __initp_eh_hooks           10077c60 f   LIBCMTD:hooks.obj
 0002:0003ec80       ?terminate@@YAXXZ          10077c80 f   LIBCMTD:hooks.obj
 0002:0003ed20       ?unexpected@@YAXXZ         10077d20 f   LIBCMTD:hooks.obj
 0002:0003ed50       ?_inconsistency@@YAXXZ     10077d50 f   LIBCMTD:hooks.obj
 0002:0003ee00       __initp_misc_rand_s        10077e00 f   LIBCMTD:rand_s.obj
 0002:0003ee20       _rand_s                    10077e20 f   LIBCMTD:rand_s.obj
 0002:0003f0c0       ___getlocaleinfo           100780c0 f   LIBCMTD:inithelp.obj
 0002:0003f450       __initp_misc_purevirt      10078450 f   LIBCMTD:inithelp.obj
 0002:0003f470       __initp_heap_handler       10078470 f   LIBCMTD:handler.obj
 0002:0003f490       ?_set_new_handler@@YAP6AHI@ZP6AHI@Z@Z 10078490 f   LIBCMTD:handler.obj
 0002:0003f4e0       ?_set_new_handler@@YAP6AHI@ZH@Z 100784e0 f   LIBCMTD:handler.obj
 0002:0003f530       ?_query_new_handler@@YAP6AHI@ZXZ 10078530 f   LIBCMTD:handler.obj
 0002:0003f550       __callnewh                 10078550 f   LIBCMTD:handler.obj
 0002:0003f5a0       ___report_gsfailure        100785a0 f   LIBCMTD:gs_report.obj
 0002:0003f700       ?_JumpToContinuation@@YGXPAXPAUEHRegistrationNode@@@Z 10078700 f   LIBCMTD:_trnsctrl_.obj
 0002:0003f750       ?_CallMemberFunction0@@YGXPAX0@Z 10078750 f   LIBCMTD:_trnsctrl_.obj
 0002:0003f760       ?_CallMemberFunction1@@YGXPAX00@Z 10078760 f   LIBCMTD:_trnsctrl_.obj
 0002:0003f770       ?_CallMemberFunction2@@YGXPAX00H@Z 10078770 f   LIBCMTD:_trnsctrl_.obj
 0002:0003f780       ?_UnwindNestedFrames@@YGXPAUEHRegistrationNode@@PAUEHExceptionRecord@@@Z 10078780 f   LIBCMTD:_trnsctrl_.obj
 0002:0003f7f0       ___CxxFrameHandler         100787f0 f   LIBCMTD:_trnsctrl_.obj
 0002:0003f840       ___CxxFrameHandler3        10078840 f   LIBCMTD:_trnsctrl_.obj
 0002:0003f890       ___CxxFrameHandler2        10078890 f   LIBCMTD:_trnsctrl_.obj
 0002:0003f8e0       ___CxxLongjmpUnwind@4      100788e0 f   LIBCMTD:_trnsctrl_.obj
 0002:0003f920       ?_CallCatchBlock2@@YAPAXPAUEHRegistrationNode@@PBU_s_FuncInfo@@PAXHK@Z 10078920 f   LIBCMTD:_trnsctrl_.obj
 0002:0003fa10       ?_CallSETranslator@@YAHPAUEHExceptionRecord@@PAUEHRegistrationNode@@PAX2PBU_s_FuncInfo@@H1@Z 10078a10 f   LIBCMTD:_trnsctrl_.obj
 0002:0003fc20       ?_GetRangeOfTrysToCheck@@YAPBU_s_TryBlockMapEntry@@PBU_s_FuncInfo@@HHPAI1@Z 10078c20 f   LIBCMTD:_trnsctrl_.obj
 0002:0003fcc0       __CreateFrameInfo          10078cc0 f   LIBCMTD:_trnsctrl_.obj
 0002:0003fd00       __IsExceptionObjectToBeDestroyed 10078d00 f   LIBCMTD:_trnsctrl_.obj
 0002:0003fd40       __FindAndUnlinkFrame       10078d40 f   LIBCMTD:_trnsctrl_.obj
 0002:0003fdb0       ___crtLCMapStringA         10078db0 f   LIBCMTD:a_map.obj
 0002:00040160       __MarkAllocaS              10079160 f i LIBCMTD:a_map.obj
 0002:00040190       __freea                    10079190 f i LIBCMTD:a_map.obj
 0002:00040270       ___crtGetStringTypeA       10079270 f   LIBCMTD:a_str.obj
 0002:00040430       ___init_time               10079430 f   LIBCMTD:inittime.obj
 0002:000414a0       ___free_lc_time            1007a4a0 f   LIBCMTD:inittime.obj
 0002:00041cb0       ___init_numeric            1007acb0 f   LIBCMTD:initnum.obj
 0002:00042150       ___free_lconv_num          1007b150 f   LIBCMTD:initnum.obj
 0002:00042230       ___init_monetary           1007b230 f   LIBCMTD:initmon.obj
 0002:00042990       ___free_lconv_mon          1007b990 f   LIBCMTD:initmon.obj
 0002:00042ba0       _localeconv                1007bba0 f   LIBCMTD:lconv.obj
 0002:00042c00       ___pwctype_func            1007bc00 f   LIBCMTD:ctype.obj
 0002:00042c10       ___pctype_func             1007bc10 f   LIBCMTD:ctype.obj
 0002:00042c70       __malloc_base              1007bc70 f   LIBCMTD:malloc.obj
 0002:00042d20       __heap_alloc_base          1007bd20 f i LIBCMTD:malloc.obj
 0002:00042d90       __CrtSetReportHook2        1007bd90 f   LIBCMTD:dbgrpt.obj
 0002:00043180       __CrtDbgReport             1007c180 f   LIBCMTD:dbgrpt.obj
 0002:000431d0       __CrtDbgReportV            1007c1d0 f i LIBCMTD:dbgrpt.obj
 0002:00043200       ___crtMessageWindowA       1007c200 f   LIBCMTD:dbgrpt.obj
 0002:00043700       __expand_base              1007c700 f   LIBCMTD:expand.obj
 0002:000438b0       __realloc_base             1007c8b0 f   LIBCMTD:realloc.obj
 0002:000439f0       __free_base                1007c9f0 f   LIBCMTD:free.obj
 0002:00043a60       __heapchk                  1007ca60 f   LIBCMTD:heapchk.obj
 0002:00043aa0       __heapset                  1007caa0 f   LIBCMTD:heapchk.obj
 0002:00043ab0       __chvalidator              1007cab0 f   LIBCMTD:isctype.obj
 0002:00043b10       __chvalidator_l            1007cb10 f   LIBCMTD:isctype.obj
 0002:00043bf0       __isctype_l                1007cbf0 f   LIBCMTD:isctype.obj
 0002:00043d50       __isctype                  1007cd50 f   LIBCMTD:isctype.obj
 0002:00043da0       __getbuf                   1007cda0 f   LIBCMTD:_getbuf.obj
 0002:00043ea0       _printf                    1007cea0 f   LIBCMTD:printf.obj
 0002:00044030       __printf_l                 1007d030 f   LIBCMTD:printf.obj
 0002:00044060       __printf_s_l               1007d060 f   LIBCMTD:printf.obj
 0002:00044090       _printf_s                  1007d090 f   LIBCMTD:printf.obj
 0002:000440c0       __printf_p_l               1007d0c0 f   LIBCMTD:printf.obj
 0002:000440f0       __printf_p                 1007d0f0 f   LIBCMTD:printf.obj
 0002:00044120       __set_printf_count_output  1007d120 f   LIBCMTD:printf.obj
 0002:00044180       __get_printf_count_output  1007d180 f   LIBCMTD:printf.obj
 0002:000441b0       __wctomb_s_l               1007d1b0 f   LIBCMTD:wctomb.obj
 0002:00044570       _wctomb_s                  1007d570 f   LIBCMTD:wctomb.obj
 0002:000445a0       __wctomb_l                 1007d5a0 f   LIBCMTD:wctomb.obj
 0002:00044640       _wctomb                    1007d640 f   LIBCMTD:wctomb.obj
 0002:000446a0       __aullrem                  1007d6a0 f   LIBCMTD:ullrem.obj
 0002:00044740       __validate_param_reuseA    1007d740 f   LIBCMTD:outputp.obj
 0002:00044a50       __output_p_l               1007da50 f   LIBCMTD:outputp.obj
 0002:00049550       _get_crtdouble_arg         10082550 f i LIBCMTD:outputp.obj
 0002:00049580       __output_s_l               10082580 f   LIBCMTD:outputs.obj
 0002:0004b0b0       __fcloseall                100840b0 f   LIBCMTD:closeall.obj
 0002:0004b230       _open                      10084230 f   LIBCMTD:open.obj
 0002:0004b230       __open                     10084230 f   LIBCMTD:open.obj
 0002:0004b410       __sopen_helper             10084410 f   LIBCMTD:open.obj
 0002:0004cb00       __sopen                    10085b00 f   LIBCMTD:open.obj
 0002:0004cb90       __sopen_s                  10085b90 f   LIBCMTD:open.obj
 0002:0004cbc0       __mbsnbicmp_l              10085bc0 f   LIBCMTD:mbsnbicm.obj
 0002:0004d190       __mbsnbicmp                10086190 f   LIBCMTD:mbsnbicm.obj
 0002:0004d1c0       __mbsnbcmp_l               100861c0 f   LIBCMTD:mbsnbcmp.obj
 0002:0004d560       __mbsnbcmp                 10086560 f   LIBCMTD:mbsnbcmp.obj
 0002:0004d590       __global_unwind2           10086590 f   LIBCMTD:exsup.obj
 0002:0004d5f5       __local_unwind2            100865f5 f   LIBCMTD:exsup.obj
 0002:0004d679       __abnormal_termination     10086679 f   LIBCMTD:exsup.obj
 0002:0004d69c       __NLG_Notify1              1008669c f   LIBCMTD:exsup.obj
 0002:0004d6a5       __NLG_Notify               100866a5 f   LIBCMTD:exsup.obj
 0002:0004d6bc       __NLG_Dispatch2            100866bc     LIBCMTD:exsup.obj
 0002:0004d6bc       __NLG_Dispatch             100866bc     LIBCMTD:exsup.obj
 0002:0004d6c4       __NLG_Call                 100866c4 f   LIBCMTD:exsup.obj
 0002:0004d6c6       __NLG_Return2              100866c6     LIBCMTD:exsup.obj
 0002:0004d720       __commit                   10086720 f   LIBCMTD:commit.obj
 0002:0004d9c0       __ismbbkalnum_l            100869c0 f   LIBCMTD:ismbbyte.obj
 0002:0004d9f0       __ismbbkalnum              100869f0 f   LIBCMTD:ismbbyte.obj
 0002:0004da10       __ismbbkprint_l            10086a10 f   LIBCMTD:ismbbyte.obj
 0002:0004da40       __ismbbkprint              10086a40 f   LIBCMTD:ismbbyte.obj
 0002:0004da60       __ismbbkpunct_l            10086a60 f   LIBCMTD:ismbbyte.obj
 0002:0004da90       __ismbbkpunct              10086a90 f   LIBCMTD:ismbbyte.obj
 0002:0004dab0       __ismbbalnum_l             10086ab0 f   LIBCMTD:ismbbyte.obj
 0002:0004dae0       __ismbbalnum               10086ae0 f   LIBCMTD:ismbbyte.obj
 0002:0004db10       __ismbbalpha_l             10086b10 f   LIBCMTD:ismbbyte.obj
 0002:0004db40       __ismbbalpha               10086b40 f   LIBCMTD:ismbbyte.obj
 0002:0004db70       __ismbbgraph_l             10086b70 f   LIBCMTD:ismbbyte.obj
 0002:0004dba0       __ismbbgraph               10086ba0 f   LIBCMTD:ismbbyte.obj
 0002:0004dbd0       __ismbbprint_l             10086bd0 f   LIBCMTD:ismbbyte.obj
 0002:0004dc00       __ismbbprint               10086c00 f   LIBCMTD:ismbbyte.obj
 0002:0004dc30       __ismbbpunct_l             10086c30 f   LIBCMTD:ismbbyte.obj
 0002:0004dc60       __ismbbpunct               10086c60 f   LIBCMTD:ismbbyte.obj
 0002:0004dc80       __ismbblead_l              10086c80 f   LIBCMTD:ismbbyte.obj
 0002:0004dcb0       __ismbblead                10086cb0 f   LIBCMTD:ismbbyte.obj
 0002:0004dcd0       __ismbbtrail_l             10086cd0 f   LIBCMTD:ismbbyte.obj
 0002:0004dd00       __ismbbtrail               10086d00 f   LIBCMTD:ismbbyte.obj
 0002:0004dd20       __ismbbkana_l              10086d20 f   LIBCMTD:ismbbyte.obj
 0002:0004ddb0       __ismbbkana                10086db0 f   LIBCMTD:ismbbyte.obj
 0002:0004ded0       __mbstowcs_l_helper        10086ed0 f   LIBCMTD:mbstowcs.obj
 0002:0004e300       __mbstowcs_l               10087300 f   LIBCMTD:mbstowcs.obj
 0002:0004e330       _mbstowcs                  10087330 f   LIBCMTD:mbstowcs.obj
 0002:0004e390       __mbstowcs_s_l             10087390 f   LIBCMTD:mbstowcs.obj
 0002:0004e7f0       _mbstowcs_s                100877f0 f   LIBCMTD:mbstowcs.obj
 0002:0004e820       _strcat_s                  10087820 f   LIBCMTD:strcat_s.obj
 0002:0004ecf0       __itoa_s                   10087cf0 f   LIBCMTD:xtoas.obj
 0002:0004f1a0       __ltoa_s                   100881a0 f   LIBCMTD:xtoas.obj
 0002:0004f1f0       __ultoa_s                  100881f0 f   LIBCMTD:xtoas.obj
 0002:0004f220       __i64toa_s                 10088220 f   LIBCMTD:xtoas.obj
 0002:0004f720       __ui64toa_s                10088720 f   LIBCMTD:xtoas.obj
 0002:0004f750       _wcscat_s                  10088750 f   LIBCMTD:wcscat_s.obj
 0002:0004fc30       __vswprintf_helper         10088c30 f   LIBCMTD:vswprnc.obj
 0002:0004ff20       __vswprintf_c              10088f20 f   LIBCMTD:vswprnc.obj
 0002:0004ff80       __vswprintf_c_l            10088f80 f   LIBCMTD:vswprnc.obj
 0002:0004ffe0       __vswprintf_s_l            10088fe0 f   LIBCMTD:vswprnc.obj
 0002:000502e0       _vswprintf_s               100892e0 f   LIBCMTD:vswprnc.obj
 0002:00050310       __vsnwprintf_s_l           10089310 f   LIBCMTD:vswprnc.obj
 0002:000507b0       __vsnwprintf_s             100897b0 f   LIBCMTD:vswprnc.obj
 0002:000507e0       __vswprintf_p              100897e0 f   LIBCMTD:vswprnc.obj
 0002:00050840       __vswprintf_p_l            10089840 f   LIBCMTD:vswprnc.obj
 0002:000508a0       __itow_s                   100898a0 f   LIBCMTD:xtows.obj
 0002:00050d70       __ltow_s                   10089d70 f   LIBCMTD:xtows.obj
 0002:00050dc0       __ultow_s                  10089dc0 f   LIBCMTD:xtows.obj
 0002:00050df0       __i64tow_s                 10089df0 f   LIBCMTD:xtows.obj
 0002:00051310       __ui64tow_s                1008a310 f   LIBCMTD:xtows.obj
 0002:00051340       __woutput_l                1008a340 f   LIBCMTD:woutput.obj
 0002:000529d0       __vswprintf_l              1008b9d0 f   LIBCMTD:vswprint.obj
 0002:00052c40       __vswprintf                1008bc40 f   LIBCMTD:vswprint.obj
 0002:00052c70       ___vswprintf_l             1008bc70 f   LIBCMTD:vswprint.obj
 0002:00052ca0       __vscwprintf_helper        1008bca0 f   LIBCMTD:vswprint.obj
 0002:00052db0       __vscwprintf               1008bdb0 f   LIBCMTD:vswprint.obj
 0002:00052de0       __vscwprintf_l             1008bde0 f   LIBCMTD:vswprint.obj
 0002:00052e10       __vscwprintf_p             1008be10 f   LIBCMTD:vswprint.obj
 0002:00052e40       __vscwprintf_p_l           1008be40 f   LIBCMTD:vswprint.obj
 0002:00052e70       ___initconout              1008be70 f   LIBCMTD:initcon.obj
 0002:00052ea0       ___termconout              1008bea0 f   LIBCMTD:initcon.obj
 0002:00052ed0       __iswctype_l               1008bed0 f   LIBCMTD:iswctype.obj
 0002:00052ef0       _iswctype                  1008bef0 f   LIBCMTD:iswctype.obj
 0002:00052f70       _is_wctype                 1008bf70 f   LIBCMTD:iswctype.obj
 0002:00052f90       __fptrap                   1008bf90 f   LIBCMTD:crt0fp.obj
 0002:00052fb0       __set_error_mode           1008bfb0 f   LIBCMTD:errmode.obj
 0002:000530a0       ___set_app_type            1008c0a0 f   LIBCMTD:errmode.obj
 0002:000530c0       _wcsncpy_s                 1008c0c0 f   LIBCMTD:wcsncpy_s.obj
 0002:000535d0       _abort                     1008c5d0 f   LIBCMTD:abort.obj
 0002:00053650       __set_abort_behavior       1008c650 f   LIBCMTD:abort.obj
 0002:00053690       ___crtGetLocaleInfoA       1008c690 f   LIBCMTD:a_loc.obj
 0002:00053840       ___InternalCxxFrameHandler 1008c840 f   LIBCMTD:frame.obj
 0002:00053fb0       ??0bad_exception@std@@QAE@PBD@Z 1008cfb0 f i LIBCMTD:frame.obj
 0002:00053fe0       ??1bad_exception@std@@UAE@XZ 1008cfe0 f i LIBCMTD:frame.obj
 0002:00054010       ??_Ebad_exception@std@@UAEPAXI@Z 1008d010 f i LIBCMTD:frame.obj
 0002:00054010       ??_Gbad_exception@std@@UAEPAXI@Z 1008d010 f i LIBCMTD:frame.obj
 0002:00054050       ??0bad_exception@std@@QAE@ABV01@@Z 1008d050 f i LIBCMTD:frame.obj
 0002:00054270       ___TypeMatch               1008d270 f   LIBCMTD:frame.obj
 0002:00054350       ___FrameUnwindFilter       1008d350 f   LIBCMTD:frame.obj
 0002:000543f0       ___FrameUnwindToState      1008d3f0 f   LIBCMTD:frame.obj
 0002:00054a80       ___BuildCatchObjectHelper  1008da80 f   LIBCMTD:frame.obj
 0002:00054d90       ___BuildCatchObject        1008dd90 f   LIBCMTD:frame.obj
 0002:00054ee0       ___DestructExceptionObject 1008dee0 f   LIBCMTD:frame.obj
 0002:00054fc0       ___AdjustPointer           1008dfc0 f   LIBCMTD:frame.obj
 0002:00055020       ?__uncaught_exception@@YA_NXZ 1008e020 f   LIBCMTD:frame.obj
 0002:00055040       ___CxxExceptionFilter      1008e040 f   LIBCMTD:frame.obj
 0002:000552b0       ___CxxRegisterExceptionObject 1008e2b0 f   LIBCMTD:frame.obj
 0002:00055430       ___CxxDetectRethrow        1008e430 f   LIBCMTD:frame.obj
 0002:000554e0       ___CxxUnregisterExceptionObject 1008e4e0 f   LIBCMTD:frame.obj
 0002:000556c0       ___CxxQueryExceptionSize   1008e6c0 f   LIBCMTD:frame.obj
 0002:000556d0       ___CxxCallUnwindDtor       1008e6d0 f   LIBCMTD:frame.obj
 0002:00055770       ___CxxCallUnwindDelDtor    1008e770 f   LIBCMTD:frame.obj
 0002:00055810       ___CxxCallUnwindStdDelDtor 1008e810 f   LIBCMTD:frame.obj
 0002:000558b0       ___CxxCallUnwindVecDtor    1008e8b0 f   LIBCMTD:frame.obj
 0002:00055b80       ?_is_exception_typeof@@YAHABVtype_info@@PAU_EXCEPTION_POINTERS@@@Z 1008eb80 f   LIBCMTD:frame.obj
 0002:00055c90       __CallSettingFrame@12      1008ec90 f   LIBCMTD:lowhelpr.obj
 0002:00055cb7       __NLG_Return               1008ecb7     LIBCMTD:lowhelpr.obj
 0002:00055cf0       ___crtMessageBoxA          1008ecf0 f   LIBCMTD:crtmbox.obj
 0002:00055fa0       ____setlc_active_func      1008efa0 f   LIBCMTD:setlocal.obj
 0002:00055fb0       ____unguarded_readlc_active_add_func 1008efb0 f   LIBCMTD:setlocal.obj
 0002:00055fc0       __configthreadlocale       1008efc0 f   LIBCMTD:setlocal.obj
 0002:00056110       __locterm                  1008f110 f   LIBCMTD:setlocal.obj
 0002:000561d0       __free_locale              1008f1d0 f   LIBCMTD:setlocal.obj
 0002:00056360       ___free_locale             1008f360 f   LIBCMTD:setlocal.obj
 0002:00056380       __create_locale            1008f380 f   LIBCMTD:setlocal.obj
 0002:00056640       ___create_locale           1008f640 f   LIBCMTD:setlocal.obj
 0002:00056660       __get_current_locale       1008f660 f   LIBCMTD:setlocal.obj
 0002:000567c0       ___get_current_locale      1008f7c0 f   LIBCMTD:setlocal.obj
 0002:000567d0       _setlocale                 1008f7d0 f   LIBCMTD:setlocal.obj
 0002:00057a30       __expandlocale             10090a30 f   LIBCMTD:setlocal.obj
 0002:00057d80       ___init_dummy              10090d80 f   LIBCMTD:setlocal.obj
 0002:00057d90       __strcats                  10090d90 f   LIBCMTD:setlocal.obj
 0002:00057e30       ___lc_strtolc              10090e30 f   LIBCMTD:setlocal.obj
 0002:000580b0       ___lc_lctostr              100910b0 f   LIBCMTD:setlocal.obj
 0002:00058170       __stbuf                    10091170 f   LIBCMTD:_sftbuf.obj
 0002:00058320       __ftbuf                    10091320 f   LIBCMTD:_sftbuf.obj
 0002:000583d0       _vprintf_helper            100913d0 f   LIBCMTD:vprintf.obj
 0002:00058530       __vprintf_l                10091530 f   LIBCMTD:vprintf.obj
 0002:00058560       __vprintf_s_l              10091560 f   LIBCMTD:vprintf.obj
 0002:00058590       __vprintf_p_l              10091590 f   LIBCMTD:vprintf.obj
 0002:000585c0       _vprintf                   100915c0 f   LIBCMTD:vprintf.obj
 0002:000585f0       _vprintf_s                 100915f0 f   LIBCMTD:vprintf.obj
 0002:00058620       __vprintf_p                10091620 f   LIBCMTD:vprintf.obj
 0002:00058650       ___init_ctype              10091650 f   LIBCMTD:initctyp.obj
 0002:00058d70       ____mb_cur_max_func        10091d70 f   LIBCMTD:initctyp.obj
 0002:00058dd0       ____mb_cur_max_l_func      10091dd0 f   LIBCMTD:initctyp.obj
 0002:00058e10       ____lc_codepage_func       10091e10 f   LIBCMTD:initctyp.obj
 0002:00058e70       ____lc_collate_cp_func     10091e70 f   LIBCMTD:initctyp.obj
 0002:00058ed0       ____lc_handle_func         10091ed0 f   LIBCMTD:initctyp.obj
 0002:00058f30       _strtol                    10091f30 f   LIBCMTD:strtol.obj
 0002:000595b0       __strtol_l                 100925b0 f   LIBCMTD:strtol.obj
 0002:000595e0       _strtoul                   100925e0 f   LIBCMTD:strtol.obj
 0002:00059640       __strtoul_l                10092640 f   LIBCMTD:strtol.obj
 0002:00059670       __strnicmp_l               10092670 f   LIBCMTD:strnicmp.obj
 0002:00059940       __strnicmp                 10092940 f   LIBCMTD:strnicmp.obj
 0002:00059b30       _strncmp                   10092b30 f   LIBCMTD:strncmp.obj
 0002:00059d00       __woutput_s_l              10092d00 f   LIBCMTD:woutputs.obj
 0002:0005b530       __validate_param_reuseW    10094530 f   LIBCMTD:woutputp.obj
 0002:0005b840       __woutput_p_l              10094840 f   LIBCMTD:woutputp.obj
 0002:0005fdc0       _fputwc                    10098dc0 f   LIBCMTD:fputwc.obj
 0002:0005ff00       __fputwc_nolock            10098f00 f   LIBCMTD:fputwc.obj
 0002:000602b0       _putwc                     100992b0 f   LIBCMTD:fputwc.obj
 0002:000602d0       ?_ValidateRead@@YAHPBXI@Z  100992d0 f   LIBCMTD:validate.obj
 0002:00060300       ?_ValidateWrite@@YAHPAXI@Z 10099300 f   LIBCMTD:validate.obj
 0002:00060330       ?_ValidateExecute@@YAHP6GHXZ@Z 10099330 f   LIBCMTD:validate.obj
 0002:00060360       __CxxThrowException@8      10099360 f   LIBCMTD:throw.obj
 0002:000603d0       ?name@type_info@@QBEPBDPAU__type_info_node@@@Z 100993d0 f   LIBCMTD:typinfo.obj
 0002:00060400       ??1type_info@@UAE@XZ       10099400 f   LIBCMTD:typinfo.obj
 0002:00060430       ??_Etype_info@@UAEPAXI@Z   10099430 f i LIBCMTD:typinfo.obj
 0002:00060430       ??_Gtype_info@@UAEPAXI@Z   10099430 f i LIBCMTD:typinfo.obj
 0002:00060470       ?_name_internal_method@type_info@@QBEPBDPAU__type_info_node@@@Z 10099470 f   LIBCMTD:typinfo.obj
 0002:000604a0       ?_type_info_dtor_internal_method@type_info@@QAEXXZ 100994a0 f   LIBCMTD:typinfo.obj
 0002:000604c0       ??8type_info@@QBE_NABV0@@Z 100994c0 f   LIBCMTD:typinfo.obj
 0002:00060500       ??9type_info@@QBE_NABV0@@Z 10099500 f   LIBCMTD:typinfo.obj
 0002:00060540       ?before@type_info@@QBEHABV1@@Z 10099540 f   LIBCMTD:typinfo.obj
 0002:00060580       ?raw_name@type_info@@QBEPBDXZ 10099580 f   LIBCMTD:typinfo.obj
 0002:000605a0       ??0type_info@@AAE@ABV0@@Z  100995a0 f   LIBCMTD:typinfo.obj
 0002:000605d0       ??4type_info@@AAEAAV0@ABV0@@Z 100995d0 f   LIBCMTD:typinfo.obj
 0002:000605f0       ??0exception@std@@QAE@XZ   100995f0 f   LIBCMTD:stdexcpt.obj
 0002:00060630       ??_Eexception@std@@UAEPAXI@Z 10099630 f i LIBCMTD:stdexcpt.obj
 0002:00060630       ??_Gexception@std@@UAEPAXI@Z 10099630 f i LIBCMTD:stdexcpt.obj
 0002:00060670       ??0exception@std@@QAE@ABQBD@Z 10099670 f   LIBCMTD:stdexcpt.obj
 0002:000606c0       ??0exception@std@@QAE@ABQBDH@Z 100996c0 f   LIBCMTD:stdexcpt.obj
 0002:00060700       ??0exception@std@@QAE@ABV01@@Z 10099700 f   LIBCMTD:stdexcpt.obj
 0002:00060750       ??4exception@std@@QAEAAV01@ABV01@@Z 10099750 f   LIBCMTD:stdexcpt.obj
 0002:000607b0       ??1exception@std@@UAE@XZ   100997b0 f   LIBCMTD:stdexcpt.obj
 0002:000607e0       ?what@exception@std@@UBEPBDXZ 100997e0 f   LIBCMTD:stdexcpt.obj
 0002:00060820       ?_Copy_str@exception@std@@AAEXPBD@Z 10099820 f   LIBCMTD:stdexcpt.obj
 0002:000608a0       ?_Tidy@exception@std@@AAEXXZ 100998a0 f   LIBCMTD:stdexcpt.obj
 0002:000608f0       ??0bad_cast@std@@QAE@PBD@Z 100998f0 f   LIBCMTD:stdexcpt.obj
 0002:00060920       ??_Ebad_cast@std@@UAEPAXI@Z 10099920 f i LIBCMTD:stdexcpt.obj
 0002:00060920       ??_Gbad_cast@std@@UAEPAXI@Z 10099920 f i LIBCMTD:stdexcpt.obj
 0002:00060960       ??0bad_cast@std@@QAE@ABV01@@Z 10099960 f   LIBCMTD:stdexcpt.obj
 0002:00060990       ??1bad_cast@std@@UAE@XZ    10099990 f   LIBCMTD:stdexcpt.obj
 0002:000609c0       ??0bad_typeid@std@@QAE@PBD@Z 100999c0 f   LIBCMTD:stdexcpt.obj
 0002:000609f0       ??_Ebad_typeid@std@@UAEPAXI@Z 100999f0 f i LIBCMTD:stdexcpt.obj
 0002:000609f0       ??_Gbad_typeid@std@@UAEPAXI@Z 100999f0 f i LIBCMTD:stdexcpt.obj
 0002:00060a30       ??0bad_typeid@std@@QAE@ABV01@@Z 10099a30 f   LIBCMTD:stdexcpt.obj
 0002:00060a60       ??1bad_typeid@std@@UAE@XZ  10099a60 f   LIBCMTD:stdexcpt.obj
 0002:00060a90       ??0__non_rtti_object@std@@QAE@PBD@Z 10099a90 f   LIBCMTD:stdexcpt.obj
 0002:00060ac0       ??_G__non_rtti_object@std@@UAEPAXI@Z 10099ac0 f i LIBCMTD:stdexcpt.obj
 0002:00060ac0       ??_E__non_rtti_object@std@@UAEPAXI@Z 10099ac0 f i LIBCMTD:stdexcpt.obj
 0002:00060b00       ??0__non_rtti_object@std@@QAE@ABV01@@Z 10099b00 f   LIBCMTD:stdexcpt.obj
 0002:00060b30       ??1__non_rtti_object@std@@UAE@XZ 10099b30 f   LIBCMTD:stdexcpt.obj
 0002:00060b60       ??3@YAXPAX@Z               10099b60 f   LIBCMTD:dbgdel.obj
 0002:00060c80       _memmove                   10099c80 f   LIBCMTD:memmove.obj
 0002:000610c0       ___init_collate            1009a0c0 f   LIBCMTD:initcoll.obj
 0002:000610d0       _strcspn                   1009a0d0 f   LIBCMTD:strcspn.obj
 0002:00061130       _strpbrk                   1009a130 f   LIBCMTD:strpbrk.obj
 0002:00061180       _memcmp                    1009a180 f   LIBCMTD:memcmp.obj
 0002:00061ea0       ___get_qualified_locale    1009aea0 f   LIBCMTD:getqloc.obj
 0002:00063070       __tolower                  1009c070 f   LIBCMTD:tolower.obj
 0002:00063080       __tolower_l                1009c080 f   LIBCMTD:tolower.obj
 0002:000632d0       _tolower                   1009c2d0 f   LIBCMTD:tolower.obj
 0002:00063330       ___ascii_strnicmp          1009c330 f   LIBCMTD:_strnicm.obj
 0002:000633b0       _wcstol                    1009c3b0 f   LIBCMTD:wcstol.obj
 0002:00063870       __wcstol_l                 1009c870 f   LIBCMTD:wcstol.obj
 0002:000638a0       _wcstoul                   1009c8a0 f   LIBCMTD:wcstol.obj
 0002:000638d0       __wcstoul_l                1009c8d0 f   LIBCMTD:wcstol.obj
 0002:00063900       __flswbuf                  1009c900 f   LIBCMTD:_flswbuf.obj
 0002:00063c90       ?_Type_info_dtor@type_info@@CAXPAV1@@Z 1009cc90 f   LIBCMTD:typname.obj
 0002:00063de0       ?_Name_base@type_info@@CAPBDPBV1@PAU__type_info_node@@@Z 1009cde0 f   LIBCMTD:typname.obj
 0002:00063ff0       ?_Type_info_dtor_internal@type_info@@CAXPAV1@@Z 1009cff0 f   LIBCMTD:typname.obj
 0002:00064140       ___unDNameHelper           1009d140 f   LIBCMTD:typname.obj
 0002:00064190       ?_Name_base_internal@type_info@@CAPBDPBV1@PAU__type_info_node@@@Z 1009d190 f   LIBCMTD:typname.obj
 0002:000643c0       ___clean_type_info_names_internal 1009d3c0 f   LIBCMTD:typname.obj
 0002:000644a0       __stricmp_l                1009d4a0 f   LIBCMTD:stricmp.obj
 0002:000646b0       ___ascii_stricmp           1009d6b0 f   LIBCMTD:stricmp.obj
 0002:00064740       __stricmp                  1009d740 f   LIBCMTD:stricmp.obj
 0002:00064890       _atol                      1009d890 f   LIBCMTD:atox.obj
 0002:000648b0       __atol_l                   1009d8b0 f   LIBCMTD:atox.obj
 0002:000648e0       _atoi                      1009d8e0 f   LIBCMTD:atox.obj
 0002:00064900       __atoi_l                   1009d900 f   LIBCMTD:atox.obj
 0002:00064920       __atoi64                   1009d920 f   LIBCMTD:atox.obj
 0002:00064940       __atoi64_l                 1009d940 f   LIBCMTD:atox.obj
 0002:00064970       __wchartodigit             1009d970 f   LIBCMTD:wchtodig.obj
 0002:00064d60       ___unDName                 1009dd60 f   LIBCMTD:undname.obj
 0002:00064e70       ?Constructor@_HeapManager@@QAEXP6APAXI@ZP6AXPAX@Z@Z 1009de70 f i LIBCMTD:undname.obj
 0002:00064ec0       ?Destructor@_HeapManager@@QAEXXZ 1009dec0 f i LIBCMTD:undname.obj
 0002:00064f20       ___unDNameEx               1009df20 f   LIBCMTD:undname.obj
 0002:00065030       ??0UnDecorator@@QAE@PADPBDHP6APADJ@ZK@Z 1009e030 f i LIBCMTD:undname.obj
 0002:000650f0       ??BUnDecorator@@QAEPADXZ   1009e0f0 f i LIBCMTD:undname.obj
 0002:000653b0       ?dbGetString@DName@@QBEPADXZ 1009e3b0 f   LIBCMTD:undname.obj
 0002:000653e0       ?getDecoratedName@UnDecorator@@CA?AVDName@@XZ 1009e3e0 f   LIBCMTD:undname.obj
 0002:000657c0       ?getSymbolName@UnDecorator@@CA?AVDName@@XZ 1009e7c0 f i LIBCMTD:undname.obj
 0002:00065850       ?getZName@UnDecorator@@CA?AVDName@@_N0@Z 1009e850 f   LIBCMTD:undname.obj
 0002:00065ba0       ?getOperatorName@UnDecorator@@CA?AVDName@@_NPA_N@Z 1009eba0 f i LIBCMTD:undname.obj
 0002:00066760       ?getStringEncoding@UnDecorator@@CA?AVDName@@PADH@Z 1009f760 f   LIBCMTD:undname.obj
 0002:000668a0       ?getScope@UnDecorator@@CA?AVDName@@XZ 1009f8a0 f   LIBCMTD:undname.obj
 0002:00066d70       ?getSignedDimension@UnDecorator@@CA?AVDName@@XZ 1009fd70 f   LIBCMTD:undname.obj
 0002:00066e10       ?getDimension@UnDecorator@@CA?AVDName@@_N@Z 1009fe10 f   LIBCMTD:undname.obj
 0002:00067170       ?getNumberOfDimensions@UnDecorator@@CAHXZ 100a0170 f   LIBCMTD:undname.obj
 0002:000672b0       ?getTemplateName@UnDecorator@@CA?AVDName@@_N@Z 100a02b0 f   LIBCMTD:undname.obj
 0002:000674e0       ?getTemplateArgumentList@UnDecorator@@CA?AVDName@@XZ 100a04e0 f   LIBCMTD:undname.obj
 0002:00067800       ?getTemplateConstant@UnDecorator@@CA?AVDName@@XZ 100a0800 f   LIBCMTD:undname.obj
 0002:00067db0       ?composeDeclaration@UnDecorator@@CA?AVDName@@ABV2@@Z 100a0db0 f i LIBCMTD:undname.obj
 0002:00069920       ?getTypeEncoding@UnDecorator@@CAHXZ 100a2920 f i LIBCMTD:undname.obj
 0002:0006a5f0       ?getBasedType@UnDecorator@@CA?AVDName@@XZ 100a35f0 f   LIBCMTD:undname.obj
 0002:0006a6e0       ?getScopedName@UnDecorator@@CA?AVDName@@XZ 100a36e0 f   LIBCMTD:undname.obj
 0002:0006a840       ?getCallingConvention@UnDecorator@@CA?AVDName@@XZ 100a3840 f   LIBCMTD:undname.obj
 0002:0006aa10       ?getReturnType@UnDecorator@@CA?AVDName@@PAV2@@Z 100a3a10 f   LIBCMTD:undname.obj
 0002:0006aa70       ?getDataType@UnDecorator@@CA?AVDName@@PAV2@@Z 100a3a70 f   LIBCMTD:undname.obj
 0002:0006abd0       ?getPrimaryDataType@UnDecorator@@CA?AVDName@@ABV2@@Z 100a3bd0 f   LIBCMTD:undname.obj
 0002:0006b050       ?getArgumentTypes@UnDecorator@@CA?AVDName@@XZ 100a4050 f   LIBCMTD:undname.obj
 0002:0006b200       ?getArgumentList@UnDecorator@@CA?AVDName@@XZ 100a4200 f   LIBCMTD:undname.obj
 0002:0006b3a0       ?getThrowTypes@UnDecorator@@CA?AVDName@@XZ 100a43a0 f   LIBCMTD:undname.obj
 0002:0006b480       ?getBasicDataType@UnDecorator@@CA?AVDName@@ABV2@@Z 100a4480 f   LIBCMTD:undname.obj
 0002:0006bbb0       ?getECSUDataType@UnDecorator@@CA?AVDName@@XZ 100a4bb0 f   LIBCMTD:undname.obj
 0002:0006be00       ?getECSUName@UnDecorator@@CA?AVDName@@XZ 100a4e00 f i LIBCMTD:undname.obj
 0002:0006be20       ?getEnumType@UnDecorator@@CA?AVDName@@XZ 100a4e20 f i LIBCMTD:undname.obj
 0002:0006bfc0       ?getFunctionIndirectType@UnDecorator@@CA?AVDName@@ABV2@@Z 100a4fc0 f   LIBCMTD:undname.obj
 0002:0006c510       ?getPtrRefType@UnDecorator@@CA?AVDName@@ABV2@0PBD@Z 100a5510 f   LIBCMTD:undname.obj
 0002:0006c6d0       ?getExtendedDataIndirectType@UnDecorator@@CA?AVDName@@AAPBDAA_NH@Z 100a56d0 f   LIBCMTD:undname.obj
 0002:0006c980       ?getDataIndirectType@UnDecorator@@CA?AVDName@@ABV2@PBD0H@Z 100a5980 f   LIBCMTD:undname.obj
 0002:0006d240       ?getPtrRefDataType@UnDecorator@@CA?AVDName@@ABV2@H@Z 100a6240 f i LIBCMTD:undname.obj
 0002:0006d3d0       ?getArrayType@UnDecorator@@CA?AVDName@@ABV2@@Z 100a63d0 f i LIBCMTD:undname.obj
 0002:0006d690       ?getLexicalFrame@UnDecorator@@CA?AVDName@@XZ 100a6690 f i LIBCMTD:undname.obj
 0002:0006d6e0       ?getThisType@UnDecorator@@CA?AVDName@@XZ 100a66e0 f i LIBCMTD:undname.obj
 0002:0006d730       ?getPointerType@UnDecorator@@CA?AVDName@@ABV2@0@Z 100a6730 f i LIBCMTD:undname.obj
 0002:0006d770       ?getPointerTypeArray@UnDecorator@@CA?AVDName@@ABV2@0@Z 100a6770 f i LIBCMTD:undname.obj
 0002:0006d7b0       ?getReferenceType@UnDecorator@@CA?AVDName@@ABV2@0PBD@Z 100a67b0 f i LIBCMTD:undname.obj
 0002:0006d7e0       ?getDisplacement@UnDecorator@@CA?AVDName@@XZ 100a67e0 f i LIBCMTD:undname.obj
 0002:0006d800       ?getCallIndex@UnDecorator@@CA?AVDName@@XZ 100a6800 f i LIBCMTD:undname.obj
 0002:0006d820       ?getGuardNumber@UnDecorator@@CA?AVDName@@XZ 100a6820 f i LIBCMTD:undname.obj
 0002:0006d840       ?getVbTableType@UnDecorator@@CA?AVDName@@ABV2@@Z 100a6840 f i LIBCMTD:undname.obj
 0002:0006d860       ?getVCallThunkType@UnDecorator@@CA?AVDName@@XZ 100a6860 f i LIBCMTD:undname.obj
 0002:0006d8e0       ?getVfTableType@UnDecorator@@CA?AVDName@@ABV2@@Z 100a68e0 f i LIBCMTD:undname.obj
 0002:0006db10       ?getStorageConvention@UnDecorator@@CA?AVDName@@XZ 100a6b10 f i LIBCMTD:undname.obj
 0002:0006db30       ?getDataIndirectType@UnDecorator@@CA?AVDName@@XZ 100a6b30 f i LIBCMTD:undname.obj
 0002:0006db80       ?getVdispMapType@UnDecorator@@CA?AVDName@@ABV2@@Z 100a6b80 f i LIBCMTD:undname.obj
 0002:0006dc10       ?getExternalDataType@UnDecorator@@CA?AVDName@@ABV2@@Z 100a6c10 f i LIBCMTD:undname.obj
 0002:0006dcd0       ?doMSKeywords@UnDecorator@@SAHXZ 100a6cd0 f i LIBCMTD:undname.obj
 0002:0006dcf0       ?doPtr64@UnDecorator@@SAHXZ 100a6cf0 f i LIBCMTD:undname.obj
 0002:0006dd10       ?doFunctionReturns@UnDecorator@@SAHXZ 100a6d10 f i LIBCMTD:undname.obj
 0002:0006dd30       ?doAllocationModel@UnDecorator@@SAHXZ 100a6d30 f i LIBCMTD:undname.obj
 0002:0006dd50       ?doAllocationLanguage@UnDecorator@@SAHXZ 100a6d50 f i LIBCMTD:undname.obj
 0002:0006dd70       ?doThisTypes@UnDecorator@@SAHXZ 100a6d70 f i LIBCMTD:undname.obj
 0002:0006dd90       ?doAccessSpecifiers@UnDecorator@@SAHXZ 100a6d90 f i LIBCMTD:undname.obj
 0002:0006ddb0       ?doThrowTypes@UnDecorator@@SAHXZ 100a6db0 f i LIBCMTD:undname.obj
 0002:0006ddd0       ?doMemberTypes@UnDecorator@@SAHXZ 100a6dd0 f i LIBCMTD:undname.obj
 0002:0006ddf0       ?doNameOnly@UnDecorator@@SAHXZ 100a6df0 f i LIBCMTD:undname.obj
 0002:0006de10       ?doTypeOnly@UnDecorator@@SAHXZ 100a6e10 f i LIBCMTD:undname.obj
 0002:0006de30       ?haveTemplateParameters@UnDecorator@@SAHXZ 100a6e30 f i LIBCMTD:undname.obj
 0002:0006de50       ?doEcsu@UnDecorator@@SAHXZ 100a6e50 f i LIBCMTD:undname.obj
 0002:0006de70       ?doEllipsis@UnDecorator@@SAHXZ 100a6e70 f i LIBCMTD:undname.obj
 0002:0006de90       ?UScore@UnDecorator@@SAPBDW4Tokens@@@Z 100a6e90 f   LIBCMTD:undname.obj
 0002:0006ded0       ?doUnderScore@UnDecorator@@SAHXZ 100a6ed0 f i LIBCMTD:undname.obj
 0002:0006def0       ??2@YAPAXIAAV_HeapManager@@H@Z 100a6ef0 f i LIBCMTD:undname.obj
 0002:0006df10       ?getMemory@_HeapManager@@QAEPAXIH@Z 100a6f10 f   LIBCMTD:undname.obj
 0002:0006e060       ??0Block@_HeapManager@@QAE@XZ 100a7060 f i LIBCMTD:undname.obj
 0002:0006e080       ??H@YA?AVDName@@DABV0@@Z   100a7080 f i LIBCMTD:undname.obj
 0002:0006e0c0       ??H@YA?AVDName@@W4DNameStatus@@ABV0@@Z 100a70c0 f i LIBCMTD:undname.obj
 0002:0006e100       ??H@YA?AVDName@@PBDABV0@@Z 100a7100 f i LIBCMTD:undname.obj
 0002:0006e140       ??0DName@@QAE@XZ           100a7140 f i LIBCMTD:undname.obj
 0002:0006e230       ??0DName@@QAE@D@Z          100a7230 f   LIBCMTD:undname.obj
 0002:0006e340       ??0DName@@QAE@ABV0@@Z      100a7340 f i LIBCMTD:undname.obj
 0002:0006e370       ??0DName@@QAE@PAV0@@Z      100a7370 f   LIBCMTD:undname.obj
 0002:0006e4f0       ??0DName@@QAE@PBD@Z        100a74f0 f   LIBCMTD:undname.obj
 0002:0006e620       ??0DName@@QAE@AAPBDD@Z     100a7620 f   LIBCMTD:undname.obj
 0002:0006e990       ?doNoIdentCharCheck@UnDecorator@@SAHXZ 100a7990 f i LIBCMTD:undname.obj
 0002:0006e9b0       ??0DName@@QAE@_K@Z         100a79b0 f   LIBCMTD:undname.obj
 0002:0006eb40       ??0DName@@QAE@_J@Z         100a7b40 f   LIBCMTD:undname.obj
 0002:0006ed20       ??0DName@@QAE@W4DNameStatus@@@Z 100a7d20 f   LIBCMTD:undname.obj
 0002:0006ee80       ?isValid@DName@@QBEHXZ     100a7e80 f i LIBCMTD:undname.obj
 0002:0006eeb0       ?isEmpty@DName@@QBEHXZ     100a7eb0 f i LIBCMTD:undname.obj
 0002:0006eed0       ?status@DName@@QBE?AW4DNameStatus@@XZ 100a7ed0 f i LIBCMTD:undname.obj
 0002:0006eef0       ?setPtrRef@DName@@QAEAAV1@XZ 100a7ef0 f i LIBCMTD:undname.obj
 0002:0006ef20       ?isPtrRef@DName@@QBEHXZ    100a7f20 f i LIBCMTD:undname.obj
 0002:0006ef40       ?isUDC@DName@@QBEHXZ       100a7f40 f i LIBCMTD:undname.obj
 0002:0006ef90       ?setIsUDC@DName@@QAEXXZ    100a7f90 f i LIBCMTD:undname.obj
 0002:0006efd0       ?isUDTThunk@DName@@QBEHXZ  100a7fd0 f i LIBCMTD:undname.obj
 0002:0006f020       ?setIsArray@DName@@QAEXXZ  100a8020 f i LIBCMTD:undname.obj
 0002:0006f050       ?isArray@DName@@QBEHXZ     100a8050 f i LIBCMTD:undname.obj
 0002:0006f070       ?isNoTE@DName@@QBEHXZ      100a8070 f i LIBCMTD:undname.obj
 0002:0006f090       ?setIsNoTE@DName@@QAEXXZ   100a8090 f i LIBCMTD:undname.obj
 0002:0006f0c0       ?isPinPtr@DName@@QBEHXZ    100a80c0 f i LIBCMTD:undname.obj
 0002:0006f0e0       ?setIsPinPtr@DName@@QAEXXZ 100a80e0 f i LIBCMTD:undname.obj
 0002:0006f110       ?isComArray@DName@@QBEHXZ  100a8110 f i LIBCMTD:undname.obj
 0002:0006f130       ?setIsComArray@DName@@QAEXXZ 100a8130 f i LIBCMTD:undname.obj
 0002:0006f160       ?isVCallThunk@DName@@QBEHXZ 100a8160 f i LIBCMTD:undname.obj
 0002:0006f180       ?setIsVCallThunk@DName@@QAEXXZ 100a8180 f i LIBCMTD:undname.obj
 0002:0006f1b0       ?length@DName@@QBEHXZ      100a81b0 f i LIBCMTD:undname.obj
 0002:0006f1f0       ?getLastChar@DName@@QBEDXZ 100a81f0 f i LIBCMTD:undname.obj
 0002:0006f230       ?getString@DName@@QBEPADPADH@Z 100a8230 f i LIBCMTD:undname.obj
 0002:0006f2e0       ?getString@DName@@QBEPADPAD0@Z 100a82e0 f i LIBCMTD:undname.obj
 0002:0006f330       ??HDName@@QBE?AV0@D@Z      100a8330 f   LIBCMTD:undname.obj
 0002:0006f380       ??HDName@@QBE?AV0@PBD@Z    100a8380 f   LIBCMTD:undname.obj
 0002:0006f3d0       ??HDName@@QBE?AV0@ABV0@@Z  100a83d0 f   LIBCMTD:undname.obj
 0002:0006f420       ??HDName@@QBE?AV0@PAV0@@Z  100a8420 f   LIBCMTD:undname.obj
 0002:0006f470       ??HDName@@QBE?AV0@W4DNameStatus@@@Z 100a8470 f   LIBCMTD:undname.obj
 0002:0006f4c0       ?append@DName@@AAEXPAVDNameNode@@@Z 100a84c0 f   LIBCMTD:undname.obj
 0002:0006f570       ??YDName@@QAEAAV0@D@Z      100a8570 f   LIBCMTD:undname.obj
 0002:0006f620       ??YDName@@QAEAAV0@PBD@Z    100a8620 f   LIBCMTD:undname.obj
 0002:0006f6e0       ??YDName@@QAEAAV0@ABV0@@Z  100a86e0 f   LIBCMTD:undname.obj
 0002:0006f760       ??YDName@@QAEAAV0@PAV0@@Z  100a8760 f   LIBCMTD:undname.obj
 0002:0006f840       ??YDName@@QAEAAV0@W4DNameStatus@@@Z 100a8840 f   LIBCMTD:undname.obj
 0002:0006f8c0       ??_5DName@@QAEAAV0@ABV0@@Z 100a88c0 f   LIBCMTD:undname.obj
 0002:0006f930       ??4DName@@QAEAAV0@D@Z      100a8930 f i LIBCMTD:undname.obj
 0002:0006fa40       ??4DName@@QAEAAV0@PBD@Z    100a8a40 f   LIBCMTD:undname.obj
 0002:0006fb50       ??4DName@@QAEAAV0@ABV0@@Z  100a8b50 f   LIBCMTD:undname.obj
 0002:0006fb80       ??4DName@@QAEAAV0@PAV0@@Z  100a8b80 f   LIBCMTD:undname.obj
 0002:0006fd00       ??4DName@@QAEAAV0@W4DNameStatus@@@Z 100a8d00 f   LIBCMTD:undname.obj
 0002:0006fe40       ?doPchar@DName@@AAEXPBDH@Z 100a8e40 f   LIBCMTD:undname.obj
 0002:0006ffd0       ?isFull@Replicator@@QBEHXZ 100a8fd0 f i LIBCMTD:undname.obj
 0002:0006fff0       ??0Replicator@@QAE@XZ      100a8ff0 f i LIBCMTD:undname.obj
 0002:00070010       ??YReplicator@@QAEAAV0@ABVDName@@@Z 100a9010 f   LIBCMTD:undname.obj
 0002:000700c0       ??AReplicator@@QBE?AVDName@@H@Z 100a90c0 f   LIBCMTD:undname.obj
 0002:00070140       ??0DNameNode@@IAE@XZ       100a9140 f   LIBCMTD:undname.obj
 0002:00070160       ??0charNode@@QAE@D@Z       100a9160 f   LIBCMTD:undname.obj
 0002:000701a0       ?length@charNode@@UBEHXZ   100a91a0 f i LIBCMTD:undname.obj
 0002:000701c0       ?getLastChar@charNode@@UBEDXZ 100a91c0 f i LIBCMTD:undname.obj
 0002:000701e0       ?getString@charNode@@UBEPADPAD0@Z 100a91e0 f i LIBCMTD:undname.obj
 0002:00070220       ??0pcharNode@@QAE@PBDH@Z   100a9220 f   LIBCMTD:undname.obj
 0002:000702e0       ?length@pcharNode@@UBEHXZ  100a92e0 f i LIBCMTD:undname.obj
 0002:00070300       ?getLastChar@pcharNode@@UBEDXZ 100a9300 f i LIBCMTD:undname.obj
 0002:00070350       ?getString@pcharNode@@UBEPADPAD0@Z 100a9350 f i LIBCMTD:undname.obj
 0002:00070390       ?getStringHelper@@YAPADPAD00H@Z 100a9390 f i LIBCMTD:undname.obj
 0002:000703e0       ??0pDNameNode@@QAE@PAVDName@@@Z 100a93e0 f   LIBCMTD:undname.obj
 0002:00070460       ?length@pDNameNode@@UBEHXZ 100a9460 f i LIBCMTD:undname.obj
 0002:000704a0       ?getLastChar@pDNameNode@@UBEDXZ 100a94a0 f i LIBCMTD:undname.obj
 0002:000704e0       ?getString@pDNameNode@@UBEPADPAD0@Z 100a94e0 f i LIBCMTD:undname.obj
 0002:00070530       ??0DNameStatusNode@@AAE@W4DNameStatus@@@Z 100a9530 f   LIBCMTD:undname.obj
 0002:00070590       ?length@DNameStatusNode@@UBEHXZ 100a9590 f i LIBCMTD:undname.obj
 0002:000705b0       ?getLastChar@DNameStatusNode@@UBEDXZ 100a95b0 f i LIBCMTD:undname.obj
 0002:000705e0       ?getString@DNameStatusNode@@UBEPADPAD0@Z 100a95e0 f i LIBCMTD:undname.obj
 0002:00070630       ?make@DNameStatusNode@@SAPAV1@W4DNameStatus@@@Z 100a9630 f i LIBCMTD:undname.obj
 0002:00070710       ??0pairNode@@QAE@PAVDNameNode@@0@Z 100a9710 f   LIBCMTD:undname.obj
 0002:00070760       ?length@pairNode@@UBEHXZ   100a9760 f i LIBCMTD:undname.obj
 0002:000707c0       ?getLastChar@pairNode@@UBEDXZ 100a97c0 f i LIBCMTD:undname.obj
 0002:00070820       ?getString@pairNode@@UBEPADPAD0@Z 100a9820 f i LIBCMTD:undname.obj
 0002:000709a0       __strtoi64                 100a99a0 f   LIBCMTD:strtoq.obj
 0002:00071070       __strtoi64_l               100aa070 f   LIBCMTD:strtoq.obj
 0002:000710a0       __strtoui64                100aa0a0 f   LIBCMTD:strtoq.obj
 0002:00071100       __strtoui64_l              100aa100 f   LIBCMTD:strtoq.obj
 0002:00071130       __purecall                 100aa130 f   LIBCMTD:purevirt.obj
 0002:00071180       __set_purecall_handler     100aa180 f   LIBCMTD:purevirt.obj
 0002:000711c0       __get_purecall_handler     100aa1c0 f   LIBCMTD:purevirt.obj
 0002:000711d8       _GetFileType@4             100aa1d8 f   kernel32:KERNEL32.dll
 0002:000711de       _WideCharToMultiByte@32    100aa1de f   kernel32:KERNEL32.dll
 0002:000711e4       _GetSystemTimeAsFileTime@4 100aa1e4 f   kernel32:KERNEL32.dll
 0002:000711ea       _GetCurrentThreadId@0      100aa1ea f   kernel32:KERNEL32.dll
 0002:000711f0       _DecodePointer@4           100aa1f0 f   kernel32:KERNEL32.dll
 0002:000711f6       _GetCommandLineA@0         100aa1f6 f   kernel32:KERNEL32.dll
 0002:000711fc       _IsProcessorFeaturePresent@4 100aa1fc f   kernel32:KERNEL32.dll
 0002:00071202       _LeaveCriticalSection@4    100aa202 f   kernel32:KERNEL32.dll
 0002:00071208       _EnterCriticalSection@4    100aa208 f   kernel32:KERNEL32.dll
 0002:0007120e       _InitializeCriticalSectionAndSpinCount@8 100aa20e f   kernel32:KERNEL32.dll
 0002:00071214       _SetStdHandle@8            100aa214 f   kernel32:KERNEL32.dll
 0002:0007121a       _SetHandleCount@4          100aa21a f   kernel32:KERNEL32.dll
 0002:00071220       _GetStdHandle@4            100aa220 f   kernel32:KERNEL32.dll
 0002:00071226       _GetStartupInfoW@4         100aa226 f   kernel32:KERNEL32.dll
 0002:0007122c       _DeleteCriticalSection@4   100aa22c f   kernel32:KERNEL32.dll
 0002:00071232       _TerminateProcess@8        100aa232 f   kernel32:KERNEL32.dll
 0002:00071238       _GetCurrentProcess@0       100aa238 f   kernel32:KERNEL32.dll
 0002:0007123e       _UnhandledExceptionFilter@4 100aa23e f   kernel32:KERNEL32.dll
 0002:00071244       _SetUnhandledExceptionFilter@4 100aa244 f   kernel32:KERNEL32.dll
 0002:0007124a       _IsDebuggerPresent@0       100aa24a f   kernel32:KERNEL32.dll
 0002:00071250       _EncodePointer@4           100aa250 f   kernel32:KERNEL32.dll
 0002:00071256       _GetModuleFileNameW@12     100aa256 f   kernel32:KERNEL32.dll
 0002:0007125c       _GetConsoleCP@0            100aa25c f   kernel32:KERNEL32.dll
 0002:00071262       _GetConsoleMode@8          100aa262 f   kernel32:KERNEL32.dll
 0002:00071268       _SetEndOfFile@4            100aa268 f   kernel32:KERNEL32.dll
 0002:0007126e       _HeapFree@12               100aa26e f   kernel32:KERNEL32.dll
 0002:00071274       _HeapAlloc@12              100aa274 f   kernel32:KERNEL32.dll
 0002:0007127a       _GetProcessHeap@0          100aa27a f   kernel32:KERNEL32.dll
 0002:00071280       _MultiByteToWideChar@24    100aa280 f   kernel32:KERNEL32.dll
 0002:00071286       _InterlockedIncrement@4    100aa286 f   kernel32:KERNEL32.dll
 0002:0007128c       _InterlockedDecrement@4    100aa28c f   kernel32:KERNEL32.dll
 0002:00071292       _GetProcAddress@8          100aa292 f   kernel32:KERNEL32.dll
 0002:00071298       _GetModuleHandleW@4        100aa298 f   kernel32:KERNEL32.dll
 0002:0007129e       _ExitProcess@4             100aa29e f   kernel32:KERNEL32.dll
 0002:000712a4       _InterlockedExchange@8     100aa2a4 f   kernel32:KERNEL32.dll
 0002:000712aa       _GetACP@0                  100aa2aa f   kernel32:KERNEL32.dll
 0002:000712b0       _GetOEMCP@0                100aa2b0 f   kernel32:KERNEL32.dll
 0002:000712b6       _GetCPInfo@8               100aa2b6 f   kernel32:KERNEL32.dll
 0002:000712bc       _IsValidCodePage@4         100aa2bc f   kernel32:KERNEL32.dll
 0002:000712c2       _TlsAlloc@0                100aa2c2 f   kernel32:KERNEL32.dll
 0002:000712c8       _TlsGetValue@4             100aa2c8 f   kernel32:KERNEL32.dll
 0002:000712ce       _TlsSetValue@8             100aa2ce f   kernel32:KERNEL32.dll
 0002:000712d4       _TlsFree@4                 100aa2d4 f   kernel32:KERNEL32.dll
 0002:000712da       _SetLastError@4            100aa2da f   kernel32:KERNEL32.dll
 0002:000712e0       _GetCurrentThread@0        100aa2e0 f   kernel32:KERNEL32.dll
 0002:000712e6       _HeapValidate@12           100aa2e6 f   kernel32:KERNEL32.dll
 0002:000712ec       _IsBadReadPtr@8            100aa2ec f   kernel32:KERNEL32.dll
 0002:000712f2       _RtlUnwind@16              100aa2f2 f   kernel32:KERNEL32.dll
 0002:000712f8       _GetModuleFileNameA@12     100aa2f8 f   kernel32:KERNEL32.dll
 0002:000712fe       _FreeEnvironmentStringsW@4 100aa2fe f   kernel32:KERNEL32.dll
 0002:00071304       _GetEnvironmentStringsW@0  100aa304 f   kernel32:KERNEL32.dll
 0002:0007130a       _HeapCreate@12             100aa30a f   kernel32:KERNEL32.dll
 0002:00071310       _HeapDestroy@4             100aa310 f   kernel32:KERNEL32.dll
 0002:00071316       _QueryPerformanceCounter@4 100aa316 f   kernel32:KERNEL32.dll
 0002:0007131c       _GetTickCount@0            100aa31c f   kernel32:KERNEL32.dll
 0002:00071322       _GetCurrentProcessId@0     100aa322 f   kernel32:KERNEL32.dll
 0002:00071328       _FatalAppExitA@8           100aa328 f   kernel32:KERNEL32.dll
 0002:0007132e       _OutputDebugStringA@4      100aa32e f   kernel32:KERNEL32.dll
 0002:00071334       _WriteConsoleW@20          100aa334 f   kernel32:KERNEL32.dll
 0002:0007133a       _OutputDebugStringW@4      100aa33a f   kernel32:KERNEL32.dll
 0002:00071340       _SetConsoleCtrlHandler@8   100aa340 f   kernel32:KERNEL32.dll
 0002:00071346       _LoadLibraryW@4            100aa346 f   kernel32:KERNEL32.dll
 0002:0007134c       _FreeLibrary@4             100aa34c f   kernel32:KERNEL32.dll
 0002:00071352       _GetLocaleInfoW@16         100aa352 f   kernel32:KERNEL32.dll
 0002:00071358       _LCMapStringW@24           100aa358 f   kernel32:KERNEL32.dll
 0002:0007135e       _GetStringTypeW@16         100aa35e f   kernel32:KERNEL32.dll
 0002:00071364       _HeapReAlloc@16            100aa364 f   kernel32:KERNEL32.dll
 0002:0007136a       _HeapSize@12               100aa36a f   kernel32:KERNEL32.dll
 0002:00071370       _HeapQueryInformation@20   100aa370 f   kernel32:KERNEL32.dll
 0002:00071376       _FlushFileBuffers@4        100aa376 f   kernel32:KERNEL32.dll
 0002:0007137c       _RaiseException@16         100aa37c f   kernel32:KERNEL32.dll
 0002:00071382       _GetLocaleInfoA@16         100aa382 f   kernel32:KERNEL32.dll
 0002:00071388       _IsValidLocale@8           100aa388 f   kernel32:KERNEL32.dll
 0002:0007138e       _EnumSystemLocalesA@8      100aa38e f   kernel32:KERNEL32.dll
 0002:00071394       _GetUserDefaultLCID@0      100aa394 f   kernel32:KERNEL32.dll
 0003:00000000       ___xc_a                    100ac000     LIBCMTD:crt0init.obj
 0003:00000104       ___xc_z                    100ac104     LIBCMTD:crt0init.obj
 0003:00000208       ___xi_a                    100ac208     LIBCMTD:crt0init.obj
 0003:00000420       ___xi_z                    100ac420     LIBCMTD:crt0init.obj
 0003:00000524       ___xp_a                    100ac524     LIBCMTD:crt0init.obj
 0003:00000838       ___xp_z                    100ac838     LIBCMTD:crt0init.obj
 0003:0000093c       ___xt_a                    100ac93c     LIBCMTD:crt0init.obj
 0003:00000a40       ___xt_z                    100aca40     LIBCMTD:crt0init.obj
 0003:00000b6c       ??_C@_05HBMOAMF@1?42?47?$AA@ 100acb6c     compress.obj
 0003:000031e0       _deflate_copyright         100af1e0     deflate.obj
 0003:000032d0       ??_C@_07EBNKNFJN@?$DMfd?3?$CFd?$DO?$AA@ 100af2d0     gzlib.obj
 0003:000032d9       ??_C@_00CNPNBAHC@?$AA@     100af2d9     gzlib.obj
 0003:000032dc       ??_C@_02LMMGGCAJ@?3?5?$AA@ 100af2dc     gzlib.obj
 0003:000032e0       ??_C@_0O@BNNCBLEN@out?5of?5memory?$AA@ 100af2e0     gzlib.obj
 0003:000032f0       ??_C@_0CF@MLPJFDMM@requested?5length?5does?5not?5fit?5in@ 100af2f0     gzread.obj
 0003:0000331c       ??_C@_0BG@HCKBMIHF@compressed?5data?5error?$AA@ 100af31c     gzread.obj
 0003:00003338       ??_C@_0CH@CPOLIEKA@internal?5error?3?5inflate?5stream?5c@ 100af338     gzread.obj
 0003:00003368       ??_C@_0BH@CFIIDOJD@unexpected?5end?5of?5file?$AA@ 100af368     gzread.obj
 0003:00003384       ??_C@_0BP@IIKIGMCC@out?5of?5room?5to?5push?5characters?$AA@ 100af384     gzread.obj
 0003:000033ac       ??_C@_0CH@DEEGAHIB@internal?5error?3?5deflate?5stream?5c@ 100af3ac     gzwrite.obj
 0003:00003e40       ??_C@_0BO@ECPMAOGG@invalid?5distance?5too?5far?5back?$AA@ 100afe40     infback.obj
 0003:00003e64       ??_C@_0BG@LBKINIKP@invalid?5distance?5code?$AA@ 100afe64     infback.obj
 0003:00003e80       ??_C@_0BM@FFFLPBBC@invalid?5literal?1length?5code?$AA@ 100afe80     infback.obj
 0003:00003ea4       ??_C@_0BG@GMDFCBGP@invalid?5distances?5set?$AA@ 100afea4     infback.obj
 0003:00003ec0       ??_C@_0BM@IIMGAINC@invalid?5literal?1lengths?5set?$AA@ 100afec0     infback.obj
 0003:00003ee4       ??_C@_0CF@DGDMADCD@invalid?5code?5?9?9?5missing?5end?9of?9b@ 100afee4     infback.obj
 0003:00003f10       ??_C@_0BK@BMMPFBBH@invalid?5bit?5length?5repeat?$AA@ 100aff10     infback.obj
 0003:00003f30       ??_C@_0BJ@HDEPPGOH@invalid?5code?5lengths?5set?$AA@ 100aff30     infback.obj
 0003:00003f50       ??_C@_0CE@GMIGFPBB@too?5many?5length?5or?5distance?5symb@ 100aff50     infback.obj
 0003:00003f7c       ??_C@_0BN@LGAADGOK@invalid?5stored?5block?5lengths?$AA@ 100aff7c     infback.obj
 0003:00003fa0       ??_C@_0BD@PJCBIDD@invalid?5block?5type?$AA@ 100affa0     infback.obj
 0003:00004a18       ??_C@_0BH@FGKKJGOC@incorrect?5length?5check?$AA@ 100b0a18     inflate.obj
 0003:00004a34       ??_C@_0BF@MEIGEHBE@incorrect?5data?5check?$AA@ 100b0a34     inflate.obj
 0003:00004a50       ??_C@_0BE@GONKLEPM@header?5crc?5mismatch?$AA@ 100b0a50     inflate.obj
 0003:00004a68       ??_C@_0BJ@BLBBCOMO@unknown?5header?5flags?5set?$AA@ 100b0a68     inflate.obj
 0003:00004a88       ??_C@_0BE@EMOGCLGO@invalid?5window?5size?$AA@ 100b0a88     inflate.obj
 0003:00004aa0       ??_C@_0BL@IHKGDAEE@unknown?5compression?5method?$AA@ 100b0aa0     inflate.obj
 0003:00004ac0       ??_C@_0BH@LIBMMIGA@incorrect?5header?5check?$AA@ 100b0ac0     inflate.obj
 0003:00004ae0       _inflate_copyright         100b0ae0     inftrees.obj
 0003:00004c4c       ??_C@_02GMLFBBN@wb?$AA@    100b0c4c     ioapi.obj
 0003:00004c50       ??_C@_03HMFOOINA@r?$CLb?$AA@ 100b0c50     ioapi.obj
 0003:00004c54       ??_C@_02JDPG@rb?$AA@       100b0c54     ioapi.obj
 0003:000052a0       __dist_code                100b12a0     trees.obj
 0003:000054a0       __length_code              100b14a0     trees.obj
 0003:000058a0       _unz_copyright             100b18a0     unzip.obj
 0003:00005908       _zip_copyright             100b1908     zip.obj
 0003:00005968       ??_C@_01JOAMLHOP@?9?$AA@   100b1968     zip.obj
 0003:0000596c       ??_C@_0BF@CJFPCCEG@incompatible?5version?$AA@ 100b196c     zutil.obj
 0003:00005988       ??_C@_0N@DFPGLBGC@buffer?5error?$AA@ 100b1988     zutil.obj
 0003:00005998       ??_C@_0BE@OGGJBMCE@insufficient?5memory?$AA@ 100b1998     zutil.obj
 0003:000059b0       ??_C@_0L@HAHMBNLP@data?5error?$AA@ 100b19b0     zutil.obj
 0003:000059c0       ??_C@_0N@MKKNPMJD@stream?5error?$AA@ 100b19c0     zutil.obj
 0003:000059d0       ??_C@_0L@KIJFAKBJ@file?5error?$AA@ 100b19d0     zutil.obj
 0003:000059e0       ??_C@_0L@FNAOCBOG@stream?5end?$AA@ 100b19e0     zutil.obj
 0003:000059f0       ??_C@_0BA@MOKMMFOD@need?5dictionary?$AA@ 100b19f0     zutil.obj
 0003:00005a04       _z_errmsg                  100b1a04     zutil.obj
 0003:00005a38       ??_C@_1JE@ECKHFIFP@?$AA?$CI?$AA?$CC?$AAI?$AAn?$AAv?$AAa?$AAl?$AAi?$AAd?$AA?5?$AAf?$AAi?$AAl?$AAe?$AA?5?$AAd?$AAe?$AAs?$AAc?$AAr?$AAi?$AAp?$AAt?$AAo?$AAr?$AA?4?$AA?5?$AAF?$AAi?$AAl?$AAe?$AA?5@ 100b1a38     LIBCMTD:lseeki64.obj
 0003:00005aec       ??_C@_1CM@OKGMMMDH@?$AA?$CI?$AA_?$AAo?$AAs?$AAf?$AAi?$AAl?$AAe?$AA?$CI?$AAf?$AAh?$AA?$CJ?$AA?5?$AA?$CG?$AA?5?$AAF?$AAO?$AAP?$AAE?$AAN?$AA?$CJ?$AA?$AA@ 100b1aec     LIBCMTD:lseeki64.obj
 0003:00005b20       ??_C@_1BE@KHFBJMNM@?$AA_?$AAl?$AAs?$AAe?$AAe?$AAk?$AAi?$AA6?$AA4?$AA?$AA@ 100b1b20     LIBCMTD:lseeki64.obj
 0003:00005b38       ??_C@_1GE@MINKPNPH@?$AAf?$AA?3?$AA?2?$AAd?$AAd?$AA?2?$AAv?$AAc?$AAt?$AAo?$AAo?$AAl?$AAs?$AA?2?$AAc?$AAr?$AAt?$AA_?$AAb?$AAl?$AAd?$AA?2?$AAs?$AAe?$AAl?$AAf?$AA_?$AAx?$AA8?$AA6?$AA?2?$AAc@ 100b1b38     LIBCMTD:lseeki64.obj
 0003:00005bb0       ??_C@_1FO@LPCLHKGE@?$AA?$CI?$AAf?$AAh?$AA?5?$AA?$DO?$AA?$DN?$AA?5?$AA0?$AA?5?$AA?$CG?$AA?$CG?$AA?5?$AA?$CI?$AAu?$AAn?$AAs?$AAi?$AAg?$AAn?$AAe?$AAd?$AA?$CJ?$AAf?$AAh?$AA?5?$AA?$DM?$AA?5?$AA?$CI?$AAu?$AAn?$AAs?$AAi@ 100b1bb0     LIBCMTD:lseeki64.obj
 0003:00005c20       ??_C@_1O@HFEBJM@?$AA_?$AAw?$AAo?$AAp?$AAe?$AAn?$AA?$AA@ 100b1c20     LIBCMTD:wopen.obj
 0003:00005c30       ??_C@_1FM@LFKHNNH@?$AAf?$AA?3?$AA?2?$AAd?$AAd?$AA?2?$AAv?$AAc?$AAt?$AAo?$AAo?$AAl?$AAs?$AA?2?$AAc?$AAr?$AAt?$AA_?$AAb?$AAl?$AAd?$AA?2?$AAs?$AAe?$AAl?$AAf?$AA_?$AAx?$AA8?$AA6?$AA?2?$AAc@ 100b1c30     LIBCMTD:wopen.obj
 0003:00005ca0       ??_C@_1BO@DPAOGEII@?$AA?$CI?$AAp?$AAa?$AAt?$AAh?$AA?5?$AA?$CB?$AA?$DN?$AA?5?$AAN?$AAU?$AAL?$AAL?$AA?$CJ?$AA?$AA@ 100b1ca0     LIBCMTD:wopen.obj
 0003:00005cc8       ??_C@_1FG@NFINBJCM@?$AA?$CI?$AA?$CI?$AAp?$AAm?$AAo?$AAd?$AAe?$AA?5?$AA?$CG?$AA?5?$AA?$CI?$AA?$HO?$AA?$CI?$AA_?$AAS?$AA_?$AAI?$AAR?$AAE?$AAA?$AAD?$AA?5?$AA?$HM?$AA?5?$AA_?$AAS?$AA_?$AAI?$AAW?$AAR?$AAI?$AAT@ 100b1cc8     LIBCMTD:wopen.obj
 0003:00005d30       ??_C@_1BO@NAANLDBI@?$AA_?$AAw?$AAs?$AAo?$AAp?$AAe?$AAn?$AA_?$AAh?$AAe?$AAl?$AAp?$AAe?$AAr?$AA?$AA@ 100b1d30     LIBCMTD:wopen.obj
 0003:00005d54       ??_C@_1BM@PGEEHLHE@?$AA?$CI?$AAp?$AAf?$AAh?$AA?5?$AA?$CB?$AA?$DN?$AA?5?$AAN?$AAU?$AAL?$AAL?$AA?$CJ?$AA?$AA@ 100b1d54     LIBCMTD:wopen.obj
 0003:00005d78       ??_C@_1IA@IENOJNJF@?$AA0?$AA?5?$AA?$CG?$AA?$CG?$AA?5?$AA?$CC?$AAO?$AAn?$AAl?$AAy?$AA?5?$AAU?$AAT?$AAF?$AA?9?$AA1?$AA6?$AA?5?$AAl?$AAi?$AAt?$AAt?$AAl?$AAe?$AA?5?$AAe?$AAn?$AAd?$AAi?$AAa?$AAn?$AA?5@ 100b1d78     LIBCMTD:wopen.obj
 0003:00005e14       ??_C@_1CM@IDLMKMPG@?$AA0?$AA?5?$AA?$CG?$AA?$CG?$AA?5?$AA?$CC?$AAI?$AAn?$AAt?$AAe?$AAr?$AAn?$AAa?$AAl?$AA?5?$AAE?$AAr?$AAr?$AAo?$AAr?$AA?$CC?$AA?$AA@ 100b1e14     LIBCMTD:wopen.obj
 0003:00005e48       ??_C@_1HM@GJANBLHJ@?$AA?$CI?$AAo?$AAf?$AAl?$AAa?$AAg?$AA?5?$AA?$CG?$AA?5?$AA?$CI?$AA_?$AAO?$AA_?$AAT?$AAE?$AAX?$AAT?$AA?5?$AA?$HM?$AA?5?$AA_?$AAO?$AA_?$AAW?$AAT?$AAE?$AAX?$AAT?$AA?5?$AA?$HM?$AA?5?$AA_@ 100b1e48     LIBCMTD:wopen.obj
 0003:00005edc       ??_C@_1DO@PJLMOANO@?$AA?$CI?$AA?5?$AA?$CC?$AAI?$AAn?$AAv?$AAa?$AAl?$AAi?$AAd?$AA?5?$AAs?$AAh?$AAa?$AAr?$AAi?$AAn?$AAg?$AA?5?$AAf?$AAl?$AAa?$AAg?$AA?$CC?$AA?5?$AA?0?$AA?5?$AA0?$AA?5?$AA?$CJ?$AA?$AA@ 100b1edc     LIBCMTD:wopen.obj
 0003:00005f28       ??_C@_1DI@DGKIFCCE@?$AA?$CI?$AA?5?$AA?$CC?$AAI?$AAn?$AAv?$AAa?$AAl?$AAi?$AAd?$AA?5?$AAo?$AAp?$AAe?$AAn?$AA?5?$AAf?$AAl?$AAa?$AAg?$AA?$CC?$AA?5?$AA?0?$AA?5?$AA0?$AA?5?$AA?$CJ?$AA?$AA@ 100b1f28     LIBCMTD:wopen.obj
 0003:00005f6c       ??_C@_1CG@ICBEBDJJ@?$AA_?$AAg?$AAe?$AAt?$AA_?$AAf?$AAm?$AAo?$AAd?$AAe?$AA?$CI?$AA?$CG?$AAf?$AAm?$AAo?$AAd?$AAe?$AA?$CJ?$AA?$AA@ 100b1f6c     LIBCMTD:wopen.obj
 0003:00005f9c       ??_C@_1BO@JOPFMPGH@?$AA_?$AAt?$AAs?$AAo?$AAp?$AAe?$AAn?$AA_?$AAn?$AAo?$AAl?$AAo?$AAc?$AAk?$AA?$AA@ 100b1f9c     LIBCMTD:wopen.obj
 0003:00005fc0       ?ProcessDetach@NativeDll@<CrtImplementationDetails>@@0IB 100b1fc0     LIBCMTD:wcstombs.obj
 0003:00005fc4       ?ProcessAttach@NativeDll@<CrtImplementationDetails>@@0IB 100b1fc4     LIBCMTD:wcstombs.obj
 0003:00005fc8       ?ThreadAttach@NativeDll@<CrtImplementationDetails>@@0IB 100b1fc8     LIBCMTD:wcstombs.obj
 0003:00005fcc       ?ThreadDetach@NativeDll@<CrtImplementationDetails>@@0IB 100b1fcc     LIBCMTD:wcstombs.obj
 0003:00005fd0       ?ProcessVerifier@NativeDll@<CrtImplementationDetails>@@0IB 100b1fd0     LIBCMTD:wcstombs.obj
 0003:00005fd4       ??_C@_1CG@LLJCAOHF@?$AA_?$AAw?$AAc?$AAs?$AAt?$AAo?$AAm?$AAb?$AAs?$AA_?$AAl?$AA_?$AAh?$AAe?$AAl?$AAp?$AAe?$AAr?$AA?$AA@ 100b1fd4     LIBCMTD:wcstombs.obj
 0003:00006008       ??_C@_1GE@OAENIBOD@?$AAf?$AA?3?$AA?2?$AAd?$AAd?$AA?2?$AAv?$AAc?$AAt?$AAo?$AAo?$AAl?$AAs?$AA?2?$AAc?$AAr?$AAt?$AA_?$AAb?$AAl?$AAd?$AA?2?$AAs?$AAe?$AAl?$AAf?$AA_?$AAx?$AA8?$AA6?$AA?2?$AAc@ 100b2008     LIBCMTD:wcstombs.obj
 0003:00006080       ??_C@_1BK@OIBENBPM@?$AAp?$AAw?$AAc?$AAs?$AA?5?$AA?$CB?$AA?$DN?$AA?5?$AAN?$AAU?$AAL?$AAL?$AA?$AA@ 100b2080     LIBCMTD:wcstombs.obj
 0003:000060a0       ??_C@_1CM@KEOGBFLI@?$AAs?$AAi?$AAz?$AAe?$AAI?$AAn?$AAB?$AAy?$AAt?$AAe?$AAs?$AA?5?$AA?$DO?$AA?5?$AAr?$AAe?$AAt?$AAs?$AAi?$AAz?$AAe?$AA?$AA@ 100b20a0     LIBCMTD:wcstombs.obj
 0003:000060d4       ??_C@_1CM@LLECFMFH@?$AAb?$AAu?$AAf?$AAf?$AAe?$AAr?$AAS?$AAi?$AAz?$AAe?$AA?5?$AA?$DM?$AA?$DN?$AA?5?$AAI?$AAN?$AAT?$AA_?$AAM?$AAA?$AAX?$AA?$AA@ 100b20d4     LIBCMTD:wcstombs.obj
 0003:00006108       ??_C@_1BM@BDMCLLDL@?$AA_?$AAw?$AAc?$AAs?$AAt?$AAo?$AAm?$AAb?$AAs?$AA_?$AAs?$AA_?$AAl?$AA?$AA@ 100b2108     LIBCMTD:wcstombs.obj
 0003:00006130       ??_C@_1IM@MFGKHGBP@?$AA?$CI?$AAd?$AAs?$AAt?$AA?5?$AA?$CB?$AA?$DN?$AA?5?$AAN?$AAU?$AAL?$AAL?$AA?5?$AA?$CG?$AA?$CG?$AA?5?$AAs?$AAi?$AAz?$AAe?$AAI?$AAn?$AAB?$AAy?$AAt?$AAe?$AAs?$AA?5?$AA?$DO?$AA?5?$AA0?$AA?$CJ@ 100b2130     LIBCMTD:wcstombs.obj
 0003:000061d8       ??_C@_1CC@OLIJCKA@?$AA?$CI?$AAs?$AAt?$AAr?$AAi?$AAn?$AAg?$AA?5?$AA?$CB?$AA?$DN?$AA?5?$AAN?$AAU?$AAL?$AAL?$AA?$CJ?$AA?$AA@ 100b21d8     LIBCMTD:sprintf.obj
 0003:00006200       ??_C@_1BA@KBJJGFFE@?$AAs?$AAp?$AAr?$AAi?$AAn?$AAt?$AAf?$AA?$AA@ 100b2200     LIBCMTD:sprintf.obj
 0003:00006218       ??_C@_1GC@BMNPEKNN@?$AAf?$AA?3?$AA?2?$AAd?$AAd?$AA?2?$AAv?$AAc?$AAt?$AAo?$AAo?$AAl?$AAs?$AA?2?$AAc?$AAr?$AAt?$AA_?$AAb?$AAl?$AAd?$AA?2?$AAs?$AAe?$AAl?$AAf?$AA_?$AAx?$AA8?$AA6?$AA?2?$AAc@ 100b2218     LIBCMTD:sprintf.obj
 0003:00006290       ??_C@_1CC@MGIEJOME@?$AA?$CI?$AAf?$AAo?$AAr?$AAm?$AAa?$AAt?$AA?5?$AA?$CB?$AA?$DN?$AA?5?$AAN?$AAU?$AAL?$AAL?$AA?$CJ?$AA?$AA@ 100b2290     LIBCMTD:sprintf.obj
 0003:000062b8       ??_C@_1GM@HFLCJPGH@?$AAs?$AAt?$AAr?$AAc?$AAp?$AAy?$AA_?$AAs?$AA?$CI?$AAe?$AAr?$AAr?$AAm?$AAs?$AAg?$AA?0?$AA?5?$AA?$CI?$AA9?$AA4?$AA?$CL?$AA3?$AA8?$AA?$CL?$AA2?$AA?$CJ?$AA?0?$AA?5?$AA_?$AAg?$AAe?$AAt@ 100b22b8     LIBCMTD:strerror.obj
 0003:0000633c       ??_C@_1BC@CPPAPMCG@?$AAs?$AAt?$AAr?$AAe?$AAr?$AAr?$AAo?$AAr?$AA?$AA@ 100b233c     LIBCMTD:strerror.obj
 0003:00006358       ??_C@_1GE@IMODLDCP@?$AAf?$AA?3?$AA?2?$AAd?$AAd?$AA?2?$AAv?$AAc?$AAt?$AAo?$AAo?$AAl?$AAs?$AA?2?$AAc?$AAr?$AAt?$AA_?$AAb?$AAl?$AAd?$AA?2?$AAs?$AAe?$AAl?$AAf?$AA_?$AAx?$AA8?$AA6?$AA?2?$AAc@ 100b2358     LIBCMTD:strerror.obj
 0003:000063d0       ??_C@_0DC@PHLJOGAJ@f?3?2dd?2vctools?2crt_bld?2self_x86?2c@ 100b23d0     LIBCMTD:strerror.obj
 0003:00006410       ??_C@_0EA@FCLIIPNN@Visual?5C?$CL?$CL?5CRT?3?5Not?5enough?5memor@ 100b2410     LIBCMTD:strerror.obj
 0003:00006460       ??_C@_1JI@GAHGOJMC@?$AAs?$AAt?$AAr?$AAn?$AAc?$AAp?$AAy?$AA_?$AAs?$AA?$CI?$AAb?$AAu?$AAf?$AAf?$AAe?$AAr?$AA?0?$AA?5?$AAs?$AAi?$AAz?$AAe?$AAI?$AAn?$AAT?$AAC?$AAh?$AAa?$AAr?$AAs?$AA?0?$AA?5@ 100b2460     LIBCMTD:strerror.obj
 0003:00006518       ??_C@_1CC@JNJFIMGE@?$AAs?$AAi?$AAz?$AAe?$AAI?$AAn?$AAT?$AAC?$AAh?$AAa?$AAr?$AAs?$AA?5?$AA?$DO?$AA?5?$AA0?$AA?$AA@ 100b2518     LIBCMTD:strerror.obj
 0003:00006540       ??_C@_1BG@CLIBDOC@?$AAs?$AAt?$AAr?$AAe?$AAr?$AAr?$AAo?$AAr?$AA_?$AAs?$AA?$AA@ 100b2540     LIBCMTD:strerror.obj
 0003:0000655c       ??_C@_1BO@PNINNIGK@?$AAb?$AAu?$AAf?$AAf?$AAe?$AAr?$AA?5?$AA?$CB?$AA?$DN?$AA?5?$AAN?$AAU?$AAL?$AAL?$AA?$AA@ 100b255c     LIBCMTD:strerror.obj
 0003:00006580       ??_C@_1BG@KCMPBBDK@?$AA_?$AAg?$AAe?$AAt?$AA_?$AAe?$AAr?$AAr?$AAn?$AAo?$AA?$AA@ 100b2580     LIBCMTD:dosmap.obj
 0003:000065a0       ??_C@_1GA@MFGIMPNL@?$AAf?$AA?3?$AA?2?$AAd?$AAd?$AA?2?$AAv?$AAc?$AAt?$AAo?$AAo?$AAl?$AAs?$AA?2?$AAc?$AAr?$AAt?$AA_?$AAb?$AAl?$AAd?$AA?2?$AAs?$AAe?$AAl?$AAf?$AA_?$AAx?$AA8?$AA6?$AA?2?$AAc@ 100b25a0     LIBCMTD:dosmap.obj
 0003:00006614       ??_C@_1BO@LKEBEKJP@?$AAp?$AAV?$AAa?$AAl?$AAu?$AAe?$AA?5?$AA?$CB?$AA?$DN?$AA?5?$AAN?$AAU?$AAL?$AAL?$AA?$AA@ 100b2614     LIBCMTD:dosmap.obj
 0003:00006638       ??_C@_1BM@INIPHHDD@?$AA_?$AAg?$AAe?$AAt?$AA_?$AAd?$AAo?$AAs?$AAe?$AAr?$AAr?$AAn?$AAo?$AA?$AA@ 100b2638     LIBCMTD:dosmap.obj
 0003:0000665c       ??_C@_1CI@HBNALCBB@?$AA?$CI?$AA?$CK?$AAm?$AAo?$AAd?$AAe?$AA?5?$AA?$CB?$AA?$DN?$AA?5?$AA_?$AAT?$AA?$CI?$AA?8?$AA?2?$AA0?$AA?8?$AA?$CJ?$AA?$CJ?$AA?$AA@ 100b265c     LIBCMTD:fopen.obj
 0003:0000668c       ??_C@_1BO@MJMKAKCJ@?$AA?$CI?$AAm?$AAo?$AAd?$AAe?$AA?5?$AA?$CB?$AA?$DN?$AA?5?$AAN?$AAU?$AAL?$AAL?$AA?$CJ?$AA?$AA@ 100b268c     LIBCMTD:fopen.obj
 0003:000066b0       ??_C@_1BA@HNEAFMNL@?$AA_?$AAf?$AAs?$AAo?$AAp?$AAe?$AAn?$AA?$AA@ 100b26b0     LIBCMTD:fopen.obj
 0003:000066c8       ??_C@_1FO@NCADDBOO@?$AAf?$AA?3?$AA?2?$AAd?$AAd?$AA?2?$AAv?$AAc?$AAt?$AAo?$AAo?$AAl?$AAs?$AA?2?$AAc?$AAr?$AAt?$AA_?$AAb?$AAl?$AAd?$AA?2?$AAs?$AAe?$AAl?$AAf?$AA_?$AAx?$AA8?$AA6?$AA?2?$AAc@ 100b26c8     LIBCMTD:fopen.obj
 0003:00006738       ??_C@_1BO@CLGIAEOJ@?$AA?$CI?$AAf?$AAi?$AAl?$AAe?$AA?5?$AA?$CB?$AA?$DN?$AA?5?$AAN?$AAU?$AAL?$AAL?$AA?$CJ?$AA?$AA@ 100b2738     LIBCMTD:fopen.obj
 0003:0000675c       ??_C@_1BA@PBGKCCAP@?$AAf?$AAo?$AAp?$AAe?$AAn?$AA_?$AAs?$AA?$AA@ 100b275c     LIBCMTD:fopen.obj
 0003:00006770       ??_C@_1CA@LLJLFCDN@?$AA?$CI?$AAp?$AAf?$AAi?$AAl?$AAe?$AA?5?$AA?$CB?$AA?$DN?$AA?5?$AAN?$AAU?$AAL?$AAL?$AA?$CJ?$AA?$AA@ 100b2770     LIBCMTD:fopen.obj
 0003:00006798       ??_C@_1BA@CMLCEIGG@?$AAf?$AAr?$AAe?$AAa?$AAd?$AA_?$AAs?$AA?$AA@ 100b2798     LIBCMTD:fread.obj
 0003:000067b0       ??_C@_1FO@PNLFLIH@?$AAf?$AA?3?$AA?2?$AAd?$AAd?$AA?2?$AAv?$AAc?$AAt?$AAo?$AAo?$AAl?$AAs?$AA?2?$AAc?$AAr?$AAt?$AA_?$AAb?$AAl?$AAd?$AA?2?$AAs?$AAe?$AAl?$AAf?$AA_?$AAx?$AA8?$AA6?$AA?2?$AAc@ 100b27b0     LIBCMTD:fread.obj
 0003:00006820       ??_C@_1CC@FADMNIL@?$AA?$CI?$AAs?$AAt?$AAr?$AAe?$AAa?$AAm?$AA?5?$AA?$CB?$AA?$DN?$AA?5?$AAN?$AAU?$AAL?$AAL?$AA?$CJ?$AA?$AA@ 100b2820     LIBCMTD:fread.obj
 0003:00006848       ??_C@_1DA@DKEFLDMG@?$AA?$CI?$AA?$CC?$AAb?$AAu?$AAf?$AAf?$AAe?$AAr?$AA?5?$AAt?$AAo?$AAo?$AA?5?$AAs?$AAm?$AAa?$AAl?$AAl?$AA?$CC?$AA?0?$AA?5?$AA0?$AA?$CJ?$AA?$AA@ 100b2848     LIBCMTD:fread.obj
 0003:00006888       ??_C@_1LG@DCNDJCHK@?$AA?$CI?$AA?$CC?$AAI?$AAn?$AAc?$AAo?$AAn?$AAs?$AAi?$AAs?$AAt?$AAe?$AAn?$AAt?$AA?5?$AAS?$AAt?$AAr?$AAe?$AAa?$AAm?$AA?5?$AAC?$AAo?$AAu?$AAn?$AAt?$AA?4?$AA?5?$AAF?$AAl?$AAu@ 100b2888     LIBCMTD:fread.obj
 0003:00006968       ??_C@_1EA@FAMECDND@?$AAn?$AAu?$AAm?$AA?5?$AA?$DM?$AA?$DN?$AA?5?$AA?$CI?$AAS?$AAI?$AAZ?$AAE?$AA_?$AAM?$AAA?$AAX?$AA?5?$AA?1?$AA?5?$AAe?$AAl?$AAe?$AAm?$AAe?$AAn?$AAt?$AAS?$AAi?$AAz?$AAe?$AA?$CJ?$AA?$AA@ 100b2968     LIBCMTD:fread.obj
 0003:000069b4       ??_C@_1CA@IDPOGFL@?$AA_?$AAf?$AAr?$AAe?$AAa?$AAd?$AA_?$AAn?$AAo?$AAl?$AAo?$AAc?$AAk?$AA_?$AAs?$AA?$AA@ 100b29b4     LIBCMTD:fread.obj
 0003:000069dc       ??_C@_1CC@CGFEEBMC@?$AA?$CI?$AAb?$AAu?$AAf?$AAf?$AAe?$AAr?$AA?5?$AA?$CB?$AA?$DN?$AA?5?$AAN?$AAU?$AAL?$AAL?$AA?$CJ?$AA?$AA@ 100b29dc     LIBCMTD:fread.obj
 0003:00006a04       ??_C@_1O@KLNKIMAP@?$AAf?$AAw?$AAr?$AAi?$AAt?$AAe?$AA?$AA@ 100b2a04     LIBCMTD:fwrite.obj
 0003:00006a18       ??_C@_1GA@DOFNKKGD@?$AAf?$AA?3?$AA?2?$AAd?$AAd?$AA?2?$AAv?$AAc?$AAt?$AAo?$AAo?$AAl?$AAs?$AA?2?$AAc?$AAr?$AAt?$AA_?$AAb?$AAl?$AAd?$AA?2?$AAs?$AAe?$AAl?$AAf?$AA_?$AAx?$AA8?$AA6?$AA?2?$AAc@ 100b2a18     LIBCMTD:fwrite.obj
 0003:00006a8c       ??_C@_1DC@FHEPNAPF@?$AAn?$AAu?$AAm?$AA?5?$AA?$DM?$AA?$DN?$AA?5?$AA?$CI?$AAS?$AAI?$AAZ?$AAE?$AA_?$AAM?$AAA?$AAX?$AA?5?$AA?1?$AA?5?$AAs?$AAi?$AAz?$AAe?$AA?$CJ?$AA?$AA@ 100b2a8c     LIBCMTD:fwrite.obj
 0003:00006ac8       ??_C@_1BO@JGPKCBCE@?$AA_?$AAf?$AAw?$AAr?$AAi?$AAt?$AAe?$AA_?$AAn?$AAo?$AAl?$AAo?$AAc?$AAk?$AA?$AA@ 100b2ac8     LIBCMTD:fwrite.obj
 0003:00006aec       ??_C@_1M@CKCKPMNP@?$AAf?$AAt?$AAe?$AAl?$AAl?$AA?$AA@ 100b2aec     LIBCMTD:ftell.obj
 0003:00006b00       ??_C@_1FO@NBACIADE@?$AAf?$AA?3?$AA?2?$AAd?$AAd?$AA?2?$AAv?$AAc?$AAt?$AAo?$AAo?$AAl?$AAs?$AA?2?$AAc?$AAr?$AAt?$AA_?$AAb?$AAl?$AAd?$AA?2?$AAs?$AAe?$AAl?$AAf?$AA_?$AAx?$AA8?$AA6?$AA?2?$AAc@ 100b2b00     LIBCMTD:ftell.obj
 0003:00006b70       ??_C@_1BM@EPIDANEK@?$AA_?$AAf?$AAt?$AAe?$AAl?$AAl?$AA_?$AAn?$AAo?$AAl?$AAo?$AAc?$AAk?$AA?$AA@ 100b2b70     LIBCMTD:ftell.obj
 0003:00006b94       ??_C@_1BM@JMKHIAHP@?$AA?$CI?$AAs?$AAt?$AAr?$AA?5?$AA?$CB?$AA?$DN?$AA?5?$AAN?$AAU?$AAL?$AAL?$AA?$CJ?$AA?$AA@ 100b2b94     LIBCMTD:ftell.obj
 0003:00006bb8       ??_C@_1IO@PMHBOLJK@?$AA?$CI?$AA?$CI?$AAw?$AAh?$AAe?$AAn?$AAc?$AAe?$AA?5?$AA?$DN?$AA?$DN?$AA?5?$AAS?$AAE?$AAE?$AAK?$AA_?$AAS?$AAE?$AAT?$AA?$CJ?$AA?5?$AA?$HM?$AA?$HM?$AA?5?$AA?$CI?$AAw?$AAh?$AAe?$AAn?$AAc?$AAe@ 100b2bb8     LIBCMTD:fseek.obj
 0003:00006c64       ??_C@_1M@HCCOIONH@?$AAf?$AAs?$AAe?$AAe?$AAk?$AA?$AA@ 100b2c64     LIBCMTD:fseek.obj
 0003:00006c78       ??_C@_1FO@ECBPAICH@?$AAf?$AA?3?$AA?2?$AAd?$AAd?$AA?2?$AAv?$AAc?$AAt?$AAo?$AAo?$AAl?$AAs?$AA?2?$AAc?$AAr?$AAt?$AA_?$AAb?$AAl?$AAd?$AA?2?$AAs?$AAe?$AAl?$AAf?$AA_?$AAx?$AA8?$AA6?$AA?2?$AAc@ 100b2c78     LIBCMTD:fseek.obj
 0003:00006ce8       ??_C@_1O@EGMJNCOI@?$AAf?$AAc?$AAl?$AAo?$AAs?$AAe?$AA?$AA@ 100b2ce8     LIBCMTD:fclose.obj
 0003:00006cf8       ??_C@_1GA@KMIDAPAP@?$AAf?$AA?3?$AA?2?$AAd?$AAd?$AA?2?$AAv?$AAc?$AAt?$AAo?$AAo?$AAl?$AAs?$AA?2?$AAc?$AAr?$AAt?$AA_?$AAb?$AAl?$AAd?$AA?2?$AAs?$AAe?$AAl?$AAf?$AA_?$AAx?$AA8?$AA6?$AA?2?$AAc@ 100b2cf8     LIBCMTD:fclose.obj
 0003:00006d6c       ??_C@_1BO@JINCABEC@?$AA_?$AAf?$AAc?$AAl?$AAo?$AAs?$AAe?$AA_?$AAn?$AAo?$AAl?$AAo?$AAc?$AAk?$AA?$AA@ 100b2d6c     LIBCMTD:fclose.obj
 0003:00006d90       ??_C@_19LPGIFIDB@?$AAf?$AAe?$AAo?$AAf?$AA?$AA@ 100b2d90     LIBCMTD:feoferr.obj
 0003:00006da0       ??_C@_1GC@CAEOCPLB@?$AAf?$AA?3?$AA?2?$AAd?$AAd?$AA?2?$AAv?$AAc?$AAt?$AAo?$AAo?$AAl?$AAs?$AA?2?$AAc?$AAr?$AAt?$AA_?$AAb?$AAl?$AAd?$AA?2?$AAs?$AAe?$AAl?$AAf?$AA_?$AAx?$AA8?$AA6?$AA?2?$AAc@ 100b2da0     LIBCMTD:feoferr.obj
 0003:00006e18       ??_C@_1O@MOPHEPGP@?$AAf?$AAe?$AAr?$AAr?$AAo?$AAr?$AA?$AA@ 100b2e18     LIBCMTD:feoferr.obj
 0003:00006e28       ??_C@_1BE@DHFIIAMO@?$AA_?$AAf?$AAt?$AAe?$AAl?$AAl?$AAi?$AA6?$AA4?$AA?$AA@ 100b2e28     LIBCMTD:ftelli64.obj
 0003:00006e40       ??_C@_1GE@GDLBAPK@?$AAf?$AA?3?$AA?2?$AAd?$AAd?$AA?2?$AAv?$AAc?$AAt?$AAo?$AAo?$AAl?$AAs?$AA?2?$AAc?$AAr?$AAt?$AA_?$AAb?$AAl?$AAd?$AA?2?$AAs?$AAe?$AAl?$AAf?$AA_?$AAx?$AA8?$AA6?$AA?2?$AAc@ 100b2e40     LIBCMTD:ftelli64.obj
 0003:00006eb8       ??_C@_1BI@MFCLPIBM@?$AAs?$AAt?$AAr?$AA?5?$AA?$CB?$AA?$DN?$AA?5?$AAN?$AAU?$AAL?$AAL?$AA?$AA@ 100b2eb8     LIBCMTD:ftelli64.obj
 0003:00006ed4       ??_C@_1BE@LFNEFJFD@?$AA_?$AAf?$AAs?$AAe?$AAe?$AAk?$AAi?$AA6?$AA4?$AA?$AA@ 100b2ed4     LIBCMTD:fseeki64.obj
 0003:00006ef0       ??_C@_1GE@FPMJBCHH@?$AAf?$AA?3?$AA?2?$AAd?$AAd?$AA?2?$AAv?$AAc?$AAt?$AAo?$AAo?$AAl?$AAs?$AA?2?$AAc?$AAr?$AAt?$AA_?$AAb?$AAl?$AAd?$AA?2?$AAs?$AAe?$AAl?$AAf?$AA_?$AAx?$AA8?$AA6?$AA?2?$AAc@ 100b2ef0     LIBCMTD:fseeki64.obj
 0003:00006f68       __pRawDllMain              100b2f68     LIBCMTD:dllcrt0.obj
 0003:00006f68       __pDefaultRawDllMain       100b2f68     LIBCMTD:dllcrt0.obj
 0003:00006f6c       ??_C@_0DB@OLNOAEGF@f?3?2dd?2vctools?2crt_bld?2self_x86?2c@ 100b2f6c     LIBCMTD:dllcrt0.obj
 0003:00006fa8       ??_C@_0DB@KIKNCIEC@f?3?2dd?2vctools?2crt_bld?2self_x86?2c@ 100b2fa8     LIBCMTD:osfinfo.obj
 0003:00006fe4       ??_C@_1BO@EMBOBGKE@?$AA_?$AAg?$AAe?$AAt?$AA_?$AAo?$AAs?$AAf?$AAh?$AAa?$AAn?$AAd?$AAl?$AAe?$AA?$AA@ 100b2fe4     LIBCMTD:osfinfo.obj
 0003:00007008       ??_C@_1GC@MLKLDJJG@?$AAf?$AA?3?$AA?2?$AAd?$AAd?$AA?2?$AAv?$AAc?$AAt?$AAo?$AAo?$AAl?$AAs?$AA?2?$AAc?$AAr?$AAt?$AA_?$AAb?$AAl?$AAd?$AA?2?$AAs?$AAe?$AAl?$AAf?$AA_?$AAx?$AA8?$AA6?$AA?2?$AAc@ 100b3008     LIBCMTD:osfinfo.obj
 0003:00007080       ??_C@_0DA@NBLAKPEL@f?3?2dd?2vctools?2crt_bld?2self_x86?2c@ 100b3080     LIBCMTD:ioinit.obj
 0003:000070bc       ??_C@_17LGKOMLJ@?$AA?4?$AA?4?$AA?4?$AA?$AA@ 100b30bc     LIBCMTD:dbgrptw.obj
 0003:000070c8       ??_C@_1CC@CGHMNGDG@?$AAA?$AAs?$AAs?$AAe?$AAr?$AAt?$AAi?$AAo?$AAn?$AA?5?$AAF?$AAa?$AAi?$AAl?$AAe?$AAd?$AA?$AA@ 100b30c8     LIBCMTD:dbgrptw.obj
 0003:000070f0       ??_C@_1M@ILHOPKA@?$AAE?$AAr?$AAr?$AAo?$AAr?$AA?$AA@ 100b30f0     LIBCMTD:dbgrptw.obj
 0003:00007100       ??_C@_1BA@GLMCNLEM@?$AAW?$AAa?$AAr?$AAn?$AAi?$AAn?$AAg?$AA?$AA@ 100b3100     LIBCMTD:dbgrptw.obj
 0003:00007124       ??_C@_0DA@PCCBBBID@f?3?2dd?2vctools?2crt_bld?2self_x86?2c@ 100b3124     LIBCMTD:dbgrptw.obj
 0003:00007160       ??_C@_1FI@PHIAFFHM@?$AA?$CI?$AA?$CC?$AAT?$AAh?$AAe?$AA?5?$AAh?$AAo?$AAo?$AAk?$AA?5?$AAf?$AAu?$AAn?$AAc?$AAt?$AAi?$AAo?$AAn?$AA?5?$AAi?$AAs?$AA?5?$AAn?$AAo?$AAt?$AA?5?$AAi?$AAn?$AA?5?$AAt?$AAh@ 100b3160     LIBCMTD:dbgrptw.obj
 0003:000071cc       ??_C@_1CG@JBJEFOCM@?$AAp?$AAf?$AAn?$AAN?$AAe?$AAw?$AAH?$AAo?$AAo?$AAk?$AA?5?$AA?$CB?$AA?$DN?$AA?5?$AAN?$AAU?$AAL?$AAL?$AA?$AA@ 100b31cc     LIBCMTD:dbgrptw.obj
 0003:000071fc       ??_C@_1CI@IIHEAKEI@?$AA_?$AAC?$AAr?$AAt?$AAS?$AAe?$AAt?$AAR?$AAe?$AAp?$AAo?$AAr?$AAt?$AAH?$AAo?$AAo?$AAk?$AAW?$AA2?$AA?$AA@ 100b31fc     LIBCMTD:dbgrptw.obj
 0003:00007230       ??_C@_1GA@IBJGKIFE@?$AAf?$AA?3?$AA?2?$AAd?$AAd?$AA?2?$AAv?$AAc?$AAt?$AAo?$AAo?$AAl?$AAs?$AA?2?$AAc?$AAr?$AAt?$AA_?$AAb?$AAl?$AAd?$AA?2?$AAs?$AAe?$AAl?$AAf?$AA_?$AAx?$AA8?$AA6?$AA?2?$AAc@ 100b3230     LIBCMTD:dbgrptw.obj
 0003:000072a8       ??_C@_1HI@OFEHGPPC@?$AAm?$AAo?$AAd?$AAe?$AA?5?$AA?$DN?$AA?$DN?$AA?5?$AA_?$AAC?$AAR?$AAT?$AA_?$AAR?$AAP?$AAT?$AAH?$AAO?$AAO?$AAK?$AA_?$AAI?$AAN?$AAS?$AAT?$AAA?$AAL?$AAL?$AA?5?$AA?$HM?$AA?$HM?$AA?5@ 100b32a8     LIBCMTD:dbgrptw.obj
 0003:00007338       ??_C@_1EG@PEOEAKBB@?$AAM?$AAi?$AAc?$AAr?$AAo?$AAs?$AAo?$AAf?$AAt?$AA?5?$AAV?$AAi?$AAs?$AAu?$AAa?$AAl?$AA?5?$AAC?$AA?$CL?$AA?$CL?$AA?5?$AAD?$AAe?$AAb?$AAu?$AAg?$AA?5?$AAL?$AAi?$AAb?$AAr?$AAa@ 100b3338     LIBCMTD:dbgrptw.obj
 0003:00007390       ??_C@_1FG@BBOLDHGF@?$AA_?$AAC?$AAr?$AAt?$AAD?$AAb?$AAg?$AAR?$AAe?$AAp?$AAo?$AAr?$AAt?$AA?3?$AA?5?$AAS?$AAt?$AAr?$AAi?$AAn?$AAg?$AA?5?$AAt?$AAo?$AAo?$AA?5?$AAl?$AAo?$AAn?$AAg?$AA?5?$AAo@ 100b3390     LIBCMTD:dbgrptw.obj
 0003:000073f8       ??_C@_1JI@EACPGHID@?$AAw?$AAc?$AAs?$AAc?$AAp?$AAy?$AA_?$AAs?$AA?$CI?$AAs?$AAz?$AAO?$AAu?$AAt?$AAM?$AAe?$AAs?$AAs?$AAa?$AAg?$AAe?$AA?0?$AA?5?$AA4?$AA0?$AA9?$AA6?$AA?0?$AA?5?$AAL?$AA?$CC?$AA_@ 100b33f8     LIBCMTD:dbgrptw.obj
 0003:000074b0       ??_C@_1BI@KALLJECN@?$AA?$CI?$AA?$CK?$AA_?$AAe?$AAr?$AAr?$AAn?$AAo?$AA?$CI?$AA?$CJ?$AA?$CJ?$AA?$AA@ 100b34b0     LIBCMTD:dbgrptw.obj
 0003:000074d0       ??_C@_1KK@MEFMPOLM@?$AAD?$AAe?$AAb?$AAu?$AAg?$AA?5?$AA?$CF?$AAs?$AA?$CB?$AA?6?$AA?6?$AAP?$AAr?$AAo?$AAg?$AAr?$AAa?$AAm?$AA?3?$AA?5?$AA?$CF?$AAs?$AA?$CF?$AAs?$AA?$CF?$AAs?$AA?$CF?$AAs?$AA?$CF?$AAs?$AA?$CF?$AAs@ 100b34d0     LIBCMTD:dbgrptw.obj
 0003:0000759c       ??_C@_1BE@CGCJKGHI@?$AA?6?$AAM?$AAo?$AAd?$AAu?$AAl?$AAe?$AA?3?$AA?5?$AA?$AA@ 100b359c     LIBCMTD:dbgrptw.obj
 0003:000075b4       ??_C@_1BA@LNHECFIM@?$AA?6?$AAF?$AAi?$AAl?$AAe?$AA?3?$AA?5?$AA?$AA@ 100b35b4     LIBCMTD:dbgrptw.obj
 0003:000075c8       ??_C@_1BA@GLLGCPCK@?$AA?6?$AAL?$AAi?$AAn?$AAe?$AA?3?$AA?5?$AA?$AA@ 100b35c8     LIBCMTD:dbgrptw.obj
 0003:000075dc       ??_C@_15IABLJNFO@?$AA?6?$AA?6?$AA?$AA@ 100b35dc     LIBCMTD:dbgrptw.obj
 0003:000075e4       ??_C@_1BK@PEDCIPMA@?$AAE?$AAx?$AAp?$AAr?$AAe?$AAs?$AAs?$AAi?$AAo?$AAn?$AA?3?$AA?5?$AA?$AA@ 100b35e4     LIBCMTD:dbgrptw.obj
 0003:00007604       ??_C@_11LOCGONAA@?$AA?$AA@ 100b3604     LIBCMTD:dbgrptw.obj
 0003:00007608       ??_C@_1OG@PMPPFHAF@?$AA?6?$AA?6?$AAF?$AAo?$AAr?$AA?5?$AAi?$AAn?$AAf?$AAo?$AAr?$AAm?$AAa?$AAt?$AAi?$AAo?$AAn?$AA?5?$AAo?$AAn?$AA?5?$AAh?$AAo?$AAw?$AA?5?$AAy?$AAo?$AAu?$AAr?$AA?5?$AAp?$AAr@ 100b3608     LIBCMTD:dbgrptw.obj
 0003:00007720       ??_C@_1NO@LECLLHOL@?$AAm?$AAe?$AAm?$AAc?$AAp?$AAy?$AA_?$AAs?$AA?$CI?$AAs?$AAz?$AAS?$AAh?$AAo?$AAr?$AAt?$AAP?$AAr?$AAo?$AAg?$AAN?$AAa?$AAm?$AAe?$AA?0?$AA?5?$AAs?$AAi?$AAz?$AAe?$AAo?$AAf@ 100b3720     LIBCMTD:dbgrptw.obj
 0003:0000782c       ??_C@_1CO@EAEJAADC@?$AA?$DM?$AAp?$AAr?$AAo?$AAg?$AAr?$AAa?$AAm?$AA?5?$AAn?$AAa?$AAm?$AAe?$AA?5?$AAu?$AAn?$AAk?$AAn?$AAo?$AAw?$AAn?$AA?$DO?$AA?$AA@ 100b382c     LIBCMTD:dbgrptw.obj
 0003:00007868       ??_C@_1GI@DEDNNLCI@?$AAw?$AAc?$AAs?$AAc?$AAp?$AAy?$AA_?$AAs?$AA?$CI?$AAs?$AAz?$AAE?$AAx?$AAe?$AAN?$AAa?$AAm?$AAe?$AA?0?$AA?5?$AA2?$AA6?$AA0?$AA?0?$AA?5?$AAL?$AA?$CC?$AA?$DM?$AAp?$AAr?$AAo?$AAg@ 100b3868     LIBCMTD:dbgrptw.obj
 0003:000078e4       ??_C@_1CI@PGJIFDEK@?$AA_?$AA_?$AAc?$AAr?$AAt?$AAM?$AAe?$AAs?$AAs?$AAa?$AAg?$AAe?$AAW?$AAi?$AAn?$AAd?$AAo?$AAw?$AAW?$AA?$AA@ 100b38e4     LIBCMTD:dbgrptw.obj
 0003:00007914       ??_C@_1O@KOFKDHPL@?$AA_?$AAw?$AAr?$AAi?$AAt?$AAe?$AA?$AA@ 100b3914     LIBCMTD:write.obj
 0003:00007928       ??_C@_1FO@EPLDPDDL@?$AAf?$AA?3?$AA?2?$AAd?$AAd?$AA?2?$AAv?$AAc?$AAt?$AAo?$AAo?$AAl?$AAs?$AA?2?$AAc?$AAr?$AAt?$AA_?$AAb?$AAl?$AAd?$AA?2?$AAs?$AAe?$AAl?$AAf?$AA_?$AAx?$AA8?$AA6?$AA?2?$AAc@ 100b3928     LIBCMTD:write.obj
 0003:00007998       ??_C@_1DI@CNMHHHLG@?$AAi?$AAs?$AAl?$AAe?$AAa?$AAd?$AAb?$AAy?$AAt?$AAe?$AA?$CI?$AA_?$AAd?$AAb?$AAc?$AAs?$AAB?$AAu?$AAf?$AAf?$AAe?$AAr?$AA?$CI?$AAf?$AAh?$AA?$CJ?$AA?$CJ?$AA?$AA@ 100b3998     LIBCMTD:write.obj
 0003:000079dc       ??_C@_1CC@EEOLPHGO@?$AA?$CI?$AA?$CI?$AAc?$AAn?$AAt?$AA?5?$AA?$CG?$AA?5?$AA1?$AA?$CJ?$AA?5?$AA?$DN?$AA?$DN?$AA?5?$AA0?$AA?$CJ?$AA?$AA@ 100b39dc     LIBCMTD:write.obj
 0003:00007a04       ??_C@_1BM@NCANHCIP@?$AA_?$AAw?$AAr?$AAi?$AAt?$AAe?$AA_?$AAn?$AAo?$AAl?$AAo?$AAc?$AAk?$AA?$AA@ 100b3a04     LIBCMTD:write.obj
 0003:00007a28       ??_C@_1BM@KFJLMBPG@?$AA?$CI?$AAb?$AAu?$AAf?$AA?5?$AA?$CB?$AA?$DN?$AA?5?$AAN?$AAU?$AAL?$AAL?$AA?$CJ?$AA?$AA@ 100b3a28     LIBCMTD:write.obj
 0003:00007a4c       ??_C@_1BI@GALBKMKE@?$AA?$CI?$AAs?$AAi?$AAz?$AAe?$AA?5?$AA?$DO?$AA?$DN?$AA?5?$AA0?$AA?$CJ?$AA?$AA@ 100b3a4c     LIBCMTD:chsize.obj
 0003:00007a68       ??_C@_1DG@LNNHNFHJ@?$AA?$CI?$AA_?$AAo?$AAs?$AAf?$AAi?$AAl?$AAe?$AA?$CI?$AAf?$AAi?$AAl?$AAe?$AAd?$AAe?$AAs?$AA?$CJ?$AA?5?$AA?$CG?$AA?5?$AAF?$AAO?$AAP?$AAE?$AAN?$AA?$CJ?$AA?$AA@ 100b3a68     LIBCMTD:chsize.obj
 0003:00007aa8       ??_C@_1BE@MAFDNGED@?$AA_?$AAc?$AAh?$AAs?$AAi?$AAz?$AAe?$AA_?$AAs?$AA?$AA@ 100b3aa8     LIBCMTD:chsize.obj
 0003:00007ac0       ??_C@_1GA@DBKMEDOF@?$AAf?$AA?3?$AA?2?$AAd?$AAd?$AA?2?$AAv?$AAc?$AAt?$AAo?$AAo?$AAl?$AAs?$AA?2?$AAc?$AAr?$AAt?$AA_?$AAb?$AAl?$AAd?$AA?2?$AAs?$AAe?$AAl?$AAf?$AA_?$AAx?$AA8?$AA6?$AA?2?$AAc@ 100b3ac0     LIBCMTD:chsize.obj
 0003:00007b38       ??_C@_1HC@KFLBHHBC@?$AA?$CI?$AAf?$AAi?$AAl?$AAe?$AAd?$AAe?$AAs?$AA?5?$AA?$DO?$AA?$DN?$AA?5?$AA0?$AA?5?$AA?$CG?$AA?$CG?$AA?5?$AA?$CI?$AAu?$AAn?$AAs?$AAi?$AAg?$AAn?$AAe?$AAd?$AA?$CJ?$AAf?$AAi?$AAl?$AAe?$AAd@ 100b3b38     LIBCMTD:chsize.obj
 0003:00007bc0       ??_C@_1CC@HBLPFNKH@?$AA?$CI?$AAc?$AAn?$AAt?$AA?5?$AA?$DM?$AA?$DN?$AA?5?$AAI?$AAN?$AAT?$AA_?$AAM?$AAA?$AAX?$AA?$CJ?$AA?$AA@ 100b3bc0     LIBCMTD:read.obj
 0003:00007be8       ??_C@_1M@NHJOLLDM@?$AA_?$AAr?$AAe?$AAa?$AAd?$AA?$AA@ 100b3be8     LIBCMTD:read.obj
 0003:00007bf8       ??_C@_1FM@NGICBHLO@?$AAf?$AA?3?$AA?2?$AAd?$AAd?$AA?2?$AAv?$AAc?$AAt?$AAo?$AAo?$AAl?$AAs?$AA?2?$AAc?$AAr?$AAt?$AA_?$AAb?$AAl?$AAd?$AA?2?$AAs?$AAe?$AAl?$AAf?$AA_?$AAx?$AA8?$AA6?$AA?2?$AAc@ 100b3bf8     LIBCMTD:read.obj
 0003:00007c68       ??_C@_0CO@CEGKNHEH@f?3?2dd?2vctools?2crt_bld?2self_x86?2c@ 100b3c68     LIBCMTD:read.obj
 0003:00007ca0       ??_C@_1CG@OHLJHGGK@?$AA?$CI?$AAi?$AAn?$AAp?$AAu?$AAt?$AAb?$AAu?$AAf?$AA?5?$AA?$CB?$AA?$DN?$AA?5?$AAN?$AAU?$AAL?$AAL?$AA?$CJ?$AA?$AA@ 100b3ca0     LIBCMTD:read.obj
 0003:00007cd0       ??_C@_1BK@JJBHNDKJ@?$AA_?$AAr?$AAe?$AAa?$AAd?$AA_?$AAn?$AAo?$AAl?$AAo?$AAc?$AAk?$AA?$AA@ 100b3cd0     LIBCMTD:read.obj
 0003:00007cf0       ??_C@_1O@EDEJGJBM@?$AA_?$AAc?$AAl?$AAo?$AAs?$AAe?$AA?$AA@ 100b3cf0     LIBCMTD:close.obj
 0003:00007d00       ??_C@_1FO@NNGNFGFH@?$AAf?$AA?3?$AA?2?$AAd?$AAd?$AA?2?$AAv?$AAc?$AAt?$AAo?$AAo?$AAl?$AAs?$AA?2?$AAc?$AAr?$AAt?$AA_?$AAb?$AAl?$AAd?$AA?2?$AAs?$AAe?$AAl?$AAf?$AA_?$AAx?$AA8?$AA6?$AA?2?$AAc@ 100b3d00     LIBCMTD:close.obj
 0003:00007d70       ??_C@_1O@EDOIKGHF@?$AA_?$AAl?$AAs?$AAe?$AAe?$AAk?$AA?$AA@ 100b3d70     LIBCMTD:lseek.obj
 0003:00007d80       ??_C@_1FO@LGKMLCAL@?$AAf?$AA?3?$AA?2?$AAd?$AAd?$AA?2?$AAv?$AAc?$AAt?$AAo?$AAo?$AAl?$AAs?$AA?2?$AAc?$AAr?$AAt?$AA_?$AAb?$AAl?$AAd?$AA?2?$AAs?$AAe?$AAl?$AAf?$AA_?$AAx?$AA8?$AA6?$AA?2?$AAc@ 100b3d80     LIBCMTD:lseek.obj
 0003:00007df0       ??_C@_1DM@LMLOLGJ@?$AA?$CI?$AA?$CC?$AAI?$AAn?$AAv?$AAa?$AAl?$AAi?$AAd?$AA?5?$AAf?$AAi?$AAl?$AAe?$AA?5?$AAd?$AAe?$AAs?$AAc?$AAr?$AAi?$AAp?$AAt?$AAo?$AAr?$AA?$CC?$AA?0?$AA0?$AA?$CJ?$AA?$AA@ 100b3df0     LIBCMTD:lseek.obj
 0003:00007e38       ??_C@_0P@MIGLKIOC@CorExitProcess?$AA@ 100b3e38     LIBCMTD:crt0dat.obj
 0003:00007e4c       ??_C@_1BI@BGOHAHKC@?$AAm?$AAs?$AAc?$AAo?$AAr?$AAe?$AAe?$AA?4?$AAd?$AAl?$AAl?$AA?$AA@ 100b3e4c     LIBCMTD:crt0dat.obj
 0003:00007e68       ??_C@_1CC@CDIPMFPD@?$AA_?$AAw?$AAp?$AAg?$AAm?$AAp?$AAt?$AAr?$AA?5?$AA?$CB?$AA?$DN?$AA?5?$AAN?$AAU?$AAL?$AAL?$AA?$AA@ 100b3e68     LIBCMTD:crt0dat.obj
 0003:00007e90       ??_C@_1BK@PNLDCCDP@?$AA_?$AAg?$AAe?$AAt?$AA_?$AAw?$AAp?$AAg?$AAm?$AAp?$AAt?$AAr?$AA?$AA@ 100b3e90     LIBCMTD:crt0dat.obj
 0003:00007eb0       ??_C@_1GC@DGCPEDNJ@?$AAf?$AA?3?$AA?2?$AAd?$AAd?$AA?2?$AAv?$AAc?$AAt?$AAo?$AAo?$AAl?$AAs?$AA?2?$AAc?$AAr?$AAt?$AA_?$AAb?$AAl?$AAd?$AA?2?$AAs?$AAe?$AAl?$AAf?$AA_?$AAx?$AA8?$AA6?$AA?2?$AAc@ 100b3eb0     LIBCMTD:crt0dat.obj
 0003:00007f28       ??_C@_1CA@BBNAFCKO@?$AA_?$AAp?$AAg?$AAm?$AAp?$AAt?$AAr?$AA?5?$AA?$CB?$AA?$DN?$AA?5?$AAN?$AAU?$AAL?$AAL?$AA?$AA@ 100b3f28     LIBCMTD:crt0dat.obj
 0003:00007f50       ??_C@_1BI@COAAPHJK@?$AA_?$AAg?$AAe?$AAt?$AA_?$AAp?$AAg?$AAm?$AAp?$AAt?$AAr?$AA?$AA@ 100b3f50     LIBCMTD:crt0dat.obj
 0003:00007f6c       ??_C@_1BC@JBGGJDCM@?$AA_?$AAs?$AAe?$AAt?$AAm?$AAo?$AAd?$AAe?$AA?$AA@ 100b3f6c     LIBCMTD:setmode.obj
 0003:00007f88       ??_C@_1GC@KODPFLLJ@?$AAf?$AA?3?$AA?2?$AAd?$AAd?$AA?2?$AAv?$AAc?$AAt?$AAo?$AAo?$AAl?$AAs?$AA?2?$AAc?$AAr?$AAt?$AA_?$AAb?$AAl?$AAd?$AA?2?$AAs?$AAe?$AAl?$AAf?$AA_?$AAx?$AA8?$AA6?$AA?2?$AAc@ 100b3f88     LIBCMTD:setmode.obj
 0003:00008000       ??_C@_1OA@HGPJIFPM@?$AA?$CI?$AA?$CI?$AAm?$AAo?$AAd?$AAe?$AA?5?$AA?$DN?$AA?$DN?$AA?5?$AA_?$AAO?$AA_?$AAT?$AAE?$AAX?$AAT?$AA?$CJ?$AA?5?$AA?$HM?$AA?$HM?$AA?5?$AA?$CI?$AAm?$AAo?$AAd?$AAe?$AA?5?$AA?$DN?$AA?$DN?$AA?5?$AA_@ 100b4000     LIBCMTD:setmode.obj
 0003:0000810c       ??_C@_1BG@IEEHLOCL@?$AA_?$AAs?$AAe?$AAt?$AA_?$AAf?$AAm?$AAo?$AAd?$AAe?$AA?$AA@ 100b410c     LIBCMTD:setmode.obj
 0003:00008128       ??_C@_1IC@NDCJMLB@?$AA?$CI?$AA?$CI?$AAm?$AAo?$AAd?$AAe?$AA?5?$AA?$DN?$AA?$DN?$AA?5?$AA_?$AAO?$AA_?$AAT?$AAE?$AAX?$AAT?$AA?$CJ?$AA?5?$AA?$HM?$AA?$HM?$AA?5?$AA?$CI?$AAm?$AAo?$AAd?$AAe?$AA?5?$AA?$DN?$AA?$DN?$AA?5?$AA_@ 100b4128     LIBCMTD:setmode.obj
 0003:000081c4       ??_C@_1BG@CKGMPOFH@?$AA_?$AAg?$AAe?$AAt?$AA_?$AAf?$AAm?$AAo?$AAd?$AAe?$AA?$AA@ 100b41c4     LIBCMTD:setmode.obj
 0003:000081e0       ??_C@_1CA@GPIGPPFN@?$AA?$CI?$AAp?$AAM?$AAo?$AAd?$AAe?$AA?5?$AA?$CB?$AA?$DN?$AA?5?$AAN?$AAU?$AAL?$AAL?$AA?$CJ?$AA?$AA@ 100b41e0     LIBCMTD:setmode.obj
 0003:00008208       ??_C@_0DB@MHMEONEC@f?3?2dd?2vctools?2crt_bld?2self_x86?2c@ 100b4208     LIBCMTD:mbctype.obj
 0003:00008248       ??_C@_1GE@HMAALBPJ@?$AAf?$AA?3?$AA?2?$AAd?$AAd?$AA?2?$AAv?$AAc?$AAt?$AAo?$AAo?$AAl?$AAs?$AA?2?$AAc?$AAr?$AAt?$AA_?$AAb?$AAl?$AAd?$AA?2?$AAs?$AAe?$AAl?$AAf?$AA_?$AAx?$AA8?$AA6?$AA?2?$AAc@ 100b4248     LIBCMTD:localref.obj
 0003:000082c0       ??_C@_1BKC@GGIENNAK@?$AA?$CI?$AA?$CI?$AAp?$AAt?$AAl?$AAo?$AAc?$AAi?$AA?9?$AA?$DO?$AAl?$AAc?$AA_?$AAc?$AAa?$AAt?$AAe?$AAg?$AAo?$AAr?$AAy?$AA?$FL?$AAc?$AAa?$AAt?$AAe?$AAg?$AAo?$AAr?$AAy?$AA?$FN?$AA?4@ 100b42c0     LIBCMTD:localref.obj
 0003:000084b8       ??_C@_1BC@GDGBMEMK@?$AAH?$AAH?$AA?3?$AAm?$AAm?$AA?3?$AAs?$AAs?$AA?$AA@ 100b44b8     LIBCMTD:nlsdata2.obj
 0003:000084d0       ??_C@_1CI@KNAKOEBC@?$AAd?$AAd?$AAd?$AAd?$AA?0?$AA?5?$AAM?$AAM?$AAM?$AAM?$AA?5?$AAd?$AAd?$AA?0?$AA?5?$AAy?$AAy?$AAy?$AAy?$AA?$AA@ 100b44d0     LIBCMTD:nlsdata2.obj
 0003:00008500       ??_C@_1BC@IEBCMHCM@?$AAM?$AAM?$AA?1?$AAd?$AAd?$AA?1?$AAy?$AAy?$AA?$AA@ 100b4500     LIBCMTD:nlsdata2.obj
 0003:00008518       ??_C@_15CLMNNGEL@?$AAP?$AAM?$AA?$AA@ 100b4518     LIBCMTD:nlsdata2.obj
 0003:00008520       ??_C@_15ODEHAHHF@?$AAA?$AAM?$AA?$AA@ 100b4520     LIBCMTD:nlsdata2.obj
 0003:00008528       ??_C@_1BC@FEMKIFH@?$AAD?$AAe?$AAc?$AAe?$AAm?$AAb?$AAe?$AAr?$AA?$AA@ 100b4528     LIBCMTD:nlsdata2.obj
 0003:00008540       ??_C@_1BC@BGLIFPF@?$AAN?$AAo?$AAv?$AAe?$AAm?$AAb?$AAe?$AAr?$AA?$AA@ 100b4540     LIBCMTD:nlsdata2.obj
 0003:00008558       ??_C@_1BA@EPANDLNG@?$AAO?$AAc?$AAt?$AAo?$AAb?$AAe?$AAr?$AA?$AA@ 100b4558     LIBCMTD:nlsdata2.obj
 0003:0000856c       ??_C@_1BE@DKAAMBJL@?$AAS?$AAe?$AAp?$AAt?$AAe?$AAm?$AAb?$AAe?$AAr?$AA?$AA@ 100b456c     LIBCMTD:nlsdata2.obj
 0003:00008584       ??_C@_1O@PAHLKOAC@?$AAA?$AAu?$AAg?$AAu?$AAs?$AAt?$AA?$AA@ 100b4584     LIBCMTD:nlsdata2.obj
 0003:00008594       ??_C@_19BIFMLPCD@?$AAJ?$AAu?$AAl?$AAy?$AA?$AA@ 100b4594     LIBCMTD:nlsdata2.obj
 0003:000085a0       ??_C@_19EPFLPGAP@?$AAJ?$AAu?$AAn?$AAe?$AA?$AA@ 100b45a0     LIBCMTD:nlsdata2.obj
 0003:000085ac       ??_C@_1M@GJNLMHFD@?$AAA?$AAp?$AAr?$AAi?$AAl?$AA?$AA@ 100b45ac     LIBCMTD:nlsdata2.obj
 0003:000085bc       ??_C@_1M@IKEENEDF@?$AAM?$AAa?$AAr?$AAc?$AAh?$AA?$AA@ 100b45bc     LIBCMTD:nlsdata2.obj
 0003:000085cc       ??_C@_1BC@JGDDFFAM@?$AAF?$AAe?$AAb?$AAr?$AAu?$AAa?$AAr?$AAy?$AA?$AA@ 100b45cc     LIBCMTD:nlsdata2.obj
 0003:000085e4       ??_C@_1BA@EFMEIEBA@?$AAJ?$AAa?$AAn?$AAu?$AAa?$AAr?$AAy?$AA?$AA@ 100b45e4     LIBCMTD:nlsdata2.obj
 0003:000085f8       ??_C@_17EGKACKIF@?$AAD?$AAe?$AAc?$AA?$AA@ 100b45f8     LIBCMTD:nlsdata2.obj
 0003:00008604       ??_C@_17BBDMLCIG@?$AAN?$AAo?$AAv?$AA?$AA@ 100b4604     LIBCMTD:nlsdata2.obj
 0003:00008610       ??_C@_17FNLKOI@?$AAO?$AAc?$AAt?$AA?$AA@ 100b4610     LIBCMTD:nlsdata2.obj
 0003:0000861c       ??_C@_17HCHCOKMG@?$AAS?$AAe?$AAp?$AA?$AA@ 100b461c     LIBCMTD:nlsdata2.obj
 0003:00008628       ??_C@_17ICPELBCN@?$AAA?$AAu?$AAg?$AA?$AA@ 100b4628     LIBCMTD:nlsdata2.obj
 0003:00008634       ??_C@_17IJPCKHK@?$AAJ?$AAu?$AAl?$AA?$AA@ 100b4634     LIBCMTD:nlsdata2.obj
 0003:00008640       ??_C@_17KCJGOCPB@?$AAJ?$AAu?$AAn?$AA?$AA@ 100b4640     LIBCMTD:nlsdata2.obj
 0003:0000864c       ??_C@_17PNNKMEED@?$AAM?$AAa?$AAy?$AA?$AA@ 100b464c     LIBCMTD:nlsdata2.obj
 0003:00008658       ??_C@_17LFPOIHDD@?$AAA?$AAp?$AAr?$AA?$AA@ 100b4658     LIBCMTD:nlsdata2.obj
 0003:00008664       ??_C@_17CKNLEDEC@?$AAM?$AAa?$AAr?$AA?$AA@ 100b4664     LIBCMTD:nlsdata2.obj
 0003:00008670       ??_C@_17LMDJEKJN@?$AAF?$AAe?$AAb?$AA?$AA@ 100b4670     LIBCMTD:nlsdata2.obj
 0003:0000867c       ??_C@_17DKNBKCHM@?$AAJ?$AAa?$AAn?$AA?$AA@ 100b467c     LIBCMTD:nlsdata2.obj
 0003:00008688       ??_C@_1BC@ENMNNPAJ@?$AAS?$AAa?$AAt?$AAu?$AAr?$AAd?$AAa?$AAy?$AA?$AA@ 100b4688     LIBCMTD:nlsdata2.obj
 0003:000086a0       ??_C@_1O@PDICJHAG@?$AAF?$AAr?$AAi?$AAd?$AAa?$AAy?$AA?$AA@ 100b46a0     LIBCMTD:nlsdata2.obj
 0003:000086b0       ??_C@_1BC@HHMNLIHE@?$AAT?$AAh?$AAu?$AAr?$AAs?$AAd?$AAa?$AAy?$AA?$AA@ 100b46b0     LIBCMTD:nlsdata2.obj
 0003:000086c8       ??_C@_1BE@EBOGMDOH@?$AAW?$AAe?$AAd?$AAn?$AAe?$AAs?$AAd?$AAa?$AAy?$AA?$AA@ 100b46c8     LIBCMTD:nlsdata2.obj
 0003:000086e0       ??_C@_1BA@ENFBFFEK@?$AAT?$AAu?$AAe?$AAs?$AAd?$AAa?$AAy?$AA?$AA@ 100b46e0     LIBCMTD:nlsdata2.obj
 0003:000086f4       ??_C@_1O@MMNBFLIA@?$AAM?$AAo?$AAn?$AAd?$AAa?$AAy?$AA?$AA@ 100b46f4     LIBCMTD:nlsdata2.obj
 0003:00008704       ??_C@_1O@IHNHDHPB@?$AAS?$AAu?$AAn?$AAd?$AAa?$AAy?$AA?$AA@ 100b4704     LIBCMTD:nlsdata2.obj
 0003:00008714       ??_C@_17GGIBDPIH@?$AAS?$AAa?$AAt?$AA?$AA@ 100b4714     LIBCMTD:nlsdata2.obj
 0003:00008720       ??_C@_17HFOLPPLP@?$AAF?$AAr?$AAi?$AA?$AA@ 100b4720     LIBCMTD:nlsdata2.obj
 0003:0000872c       ??_C@_17PDPHAADD@?$AAT?$AAh?$AAu?$AA?$AA@ 100b472c     LIBCMTD:nlsdata2.obj
 0003:00008738       ??_C@_17CJEDCEPE@?$AAW?$AAe?$AAd?$AA?$AA@ 100b4738     LIBCMTD:nlsdata2.obj
 0003:00008744       ??_C@_17BMKGEGOJ@?$AAT?$AAu?$AAe?$AA?$AA@ 100b4744     LIBCMTD:nlsdata2.obj
 0003:00008750       ??_C@_17KBOMKBF@?$AAM?$AAo?$AAn?$AA?$AA@ 100b4750     LIBCMTD:nlsdata2.obj
 0003:0000875c       ??_C@_17MBGCMIPB@?$AAS?$AAu?$AAn?$AA?$AA@ 100b475c     LIBCMTD:nlsdata2.obj
 0003:00008768       ??_C@_08JCCMCCIL@HH?3mm?3ss?$AA@ 100b4768     LIBCMTD:nlsdata2.obj
 0003:00008774       ??_C@_0BE@CKGJFCPC@dddd?0?5MMMM?5dd?0?5yyyy?$AA@ 100b4774     LIBCMTD:nlsdata2.obj
 0003:0000878c       ??_C@_08BPBNCDIB@MM?1dd?1yy?$AA@ 100b478c     LIBCMTD:nlsdata2.obj
 0003:00008798       ??_C@_02CJNFDJBF@PM?$AA@   100b4798     LIBCMTD:nlsdata2.obj
 0003:0000879c       ??_C@_02DEDBPAFC@AM?$AA@   100b479c     LIBCMTD:nlsdata2.obj
 0003:000087a0       ??_C@_08EDHMEBNP@December?$AA@ 100b47a0     LIBCMTD:nlsdata2.obj
 0003:000087ac       ??_C@_08HCHEGEOA@November?$AA@ 100b47ac     LIBCMTD:nlsdata2.obj
 0003:000087b8       ??_C@_07JJNFCEND@October?$AA@ 100b47b8     LIBCMTD:nlsdata2.obj
 0003:000087c4       ??_C@_09BHHEALKD@September?$AA@ 100b47c4     LIBCMTD:nlsdata2.obj
 0003:000087d0       ??_C@_06LBBHFDDG@August?$AA@ 100b47d0     LIBCMTD:nlsdata2.obj
 0003:000087d8       ??_C@_04MIEPOIFP@July?$AA@ 100b47d8     LIBCMTD:nlsdata2.obj
 0003:000087e0       ??_C@_04CNLMGBGM@June?$AA@ 100b47e0     LIBCMTD:nlsdata2.obj
 0003:000087e8       ??_C@_05DMJDNLEJ@April?$AA@ 100b47e8     LIBCMTD:nlsdata2.obj
 0003:000087f0       ??_C@_05HPCKOFNC@March?$AA@ 100b47f0     LIBCMTD:nlsdata2.obj
 0003:000087f8       ??_C@_08GNJGEPFN@February?$AA@ 100b47f8     LIBCMTD:nlsdata2.obj
 0003:00008804       ??_C@_07CGJPFGJA@January?$AA@ 100b4804     LIBCMTD:nlsdata2.obj
 0003:00008810       ??_C@_03MKABNOCG@Dec?$AA@  100b4810     LIBCMTD:nlsdata2.obj
 0003:00008814       ??_C@_03JPJOFNIA@Nov?$AA@  100b4814     LIBCMTD:nlsdata2.obj
 0003:00008818       ??_C@_03BMAOKBAD@Oct?$AA@  100b4818     LIBCMTD:nlsdata2.obj
 0003:0000881c       ??_C@_03GGCAPAJC@Sep?$AA@  100b481c     LIBCMTD:nlsdata2.obj
 0003:00008820       ??_C@_03IFJFEIGA@Aug?$AA@  100b4820     LIBCMTD:nlsdata2.obj
 0003:00008824       ??_C@_03LBGABGKK@Jul?$AA@  100b4824     LIBCMTD:nlsdata2.obj
 0003:00008828       ??_C@_03IDFGHECI@Jun?$AA@  100b4828     LIBCMTD:nlsdata2.obj
 0003:0000882c       ??_C@_03CNMDKL@May?$AA@    100b482c     LIBCMTD:nlsdata2.obj
 0003:00008830       ??_C@_03LEOLGMJP@Apr?$AA@  100b4830     LIBCMTD:nlsdata2.obj
 0003:00008834       ??_C@_03ODNJBKGA@Mar?$AA@  100b4834     LIBCMTD:nlsdata2.obj
 0003:00008838       ??_C@_03HJBDCHOM@Feb?$AA@  100b4838     LIBCMTD:nlsdata2.obj
 0003:0000883c       ??_C@_03JIHJHPIE@Jan?$AA@  100b483c     LIBCMTD:nlsdata2.obj
 0003:00008840       ??_C@_08INBOOONO@Saturday?$AA@ 100b4840     LIBCMTD:nlsdata2.obj
 0003:0000884c       ??_C@_06JECMNKMI@Friday?$AA@ 100b484c     LIBCMTD:nlsdata2.obj
 0003:00008854       ??_C@_08HACCIKIA@Thursday?$AA@ 100b4854     LIBCMTD:nlsdata2.obj
 0003:00008860       ??_C@_09DLIGFAKA@Wednesday?$AA@ 100b4860     LIBCMTD:nlsdata2.obj
 0003:0000886c       ??_C@_07BAAGCFCM@Tuesday?$AA@ 100b486c     LIBCMTD:nlsdata2.obj
 0003:00008878       ??_C@_06JLEDEDGH@Monday?$AA@ 100b4878     LIBCMTD:nlsdata2.obj
 0003:00008880       ??_C@_06OOPIFAJ@Sunday?$AA@ 100b4880     LIBCMTD:nlsdata2.obj
 0003:00008888       ??_C@_03FEFJNEK@Sat?$AA@   100b4888     LIBCMTD:nlsdata2.obj
 0003:0000888c       ??_C@_03IDIOELNC@Fri?$AA@  100b488c     LIBCMTD:nlsdata2.obj
 0003:00008890       ??_C@_03IOFIKPDN@Thu?$AA@  100b4890     LIBCMTD:nlsdata2.obj
 0003:00008894       ??_C@_03MHOMLAJA@Wed?$AA@  100b4894     LIBCMTD:nlsdata2.obj
 0003:00008898       ??_C@_03NAGEINEP@Tue?$AA@  100b4898     LIBCMTD:nlsdata2.obj
 0003:0000889c       ??_C@_03PDAGKDH@Mon?$AA@   100b489c     LIBCMTD:nlsdata2.obj
 0003:000088a0       ??_C@_03KOEHGMDN@Sun?$AA@  100b48a0     LIBCMTD:nlsdata2.obj
 0003:000088a4       ??_C@_0DC@LMJHGCKC@f?3?2dd?2vctools?2crt_bld?2self_x86?2c@ 100b48a4     LIBCMTD:tidtable.obj
 0003:000088e0       ??_C@_07PEJMOBNF@FlsFree?$AA@ 100b48e0     LIBCMTD:tidtable.obj
 0003:000088ec       ??_C@_0M@JCPCPOEF@FlsSetValue?$AA@ 100b48ec     LIBCMTD:tidtable.obj
 0003:000088fc       ??_C@_0M@GDNOONDI@FlsGetValue?$AA@ 100b48fc     LIBCMTD:tidtable.obj
 0003:0000890c       ??_C@_08KNHFBNJ@FlsAlloc?$AA@ 100b490c     LIBCMTD:tidtable.obj
 0003:00008918       ??_C@_1BK@DBDEIDLH@?$AAK?$AAE?$AAR?$AAN?$AAE?$AAL?$AA3?$AA2?$AA?4?$AAD?$AAL?$AAL?$AA?$AA@ 100b4918     LIBCMTD:tidtable.obj
 0003:00008938       ??_C@_06PJIGMIJB@Client?$AA@ 100b4938     LIBCMTD:dbgheap.obj
 0003:00008940       ??_C@_06KMEJCCGM@Ignore?$AA@ 100b4940     LIBCMTD:dbgheap.obj
 0003:00008948       ??_C@_03OGPFLFLO@CRT?$AA@  100b4948     LIBCMTD:dbgheap.obj
 0003:0000894c       ??_C@_06EFAGIKOH@Normal?$AA@ 100b494c     LIBCMTD:dbgheap.obj
 0003:00008954       ??_C@_04HJMOFLDF@Free?$AA@ 100b4954     LIBCMTD:dbgheap.obj
 0003:00008974       ??_C@_0DC@JEMAGEKG@Error?3?5memory?5allocation?3?5bad?5me@ 100b4974     LIBCMTD:dbgheap.obj
 0003:000089b0       ??_C@_0CF@BICKFLAF@Invalid?5allocation?5size?3?5?$CFIu?5byt@ 100b49b0     LIBCMTD:dbgheap.obj
 0003:000089dc       ??_C@_02DKCKIIND@?$CFs?$AA@ 100b49dc     LIBCMTD:dbgheap.obj
 0003:000089e0       ??_C@_0CB@CCLOLAHO@Client?5hook?5allocation?5failure?4?6@ 100b49e0     LIBCMTD:dbgheap.obj
 0003:00008a08       ??_C@_0DF@BBEGIFEK@Client?5hook?5allocation?5failure?5a@ 100b4a08     LIBCMTD:dbgheap.obj
 0003:00008a48       ??_C@_1GC@DNJKKEAA@?$AAf?$AA?3?$AA?2?$AAd?$AAd?$AA?2?$AAv?$AAc?$AAt?$AAo?$AAo?$AAl?$AAs?$AA?2?$AAc?$AAr?$AAt?$AA_?$AAb?$AAl?$AAd?$AA?2?$AAs?$AAe?$AAl?$AAf?$AA_?$AAx?$AA8?$AA6?$AA?2?$AAc@ 100b4a48     LIBCMTD:dbgheap.obj
 0003:00008ac0       ??_C@_1CE@LJFEPPMP@?$AA_?$AAC?$AAr?$AAt?$AAC?$AAh?$AAe?$AAc?$AAk?$AAM?$AAe?$AAm?$AAo?$AAr?$AAy?$AA?$CI?$AA?$CJ?$AA?$AA@ 100b4ac0     LIBCMTD:dbgheap.obj
 0003:00008aec       ??_C@_1DE@KOOKLFBB@?$AA_?$AAp?$AAF?$AAi?$AAr?$AAs?$AAt?$AAB?$AAl?$AAo?$AAc?$AAk?$AA?5?$AA?$DN?$AA?$DN?$AA?5?$AAp?$AAO?$AAl?$AAd?$AAB?$AAl?$AAo?$AAc?$AAk?$AA?$AA@ 100b4aec     LIBCMTD:dbgheap.obj
 0003:00008b2c       ??_C@_1DC@GEFKNOOL@?$AA_?$AAp?$AAL?$AAa?$AAs?$AAt?$AAB?$AAl?$AAo?$AAc?$AAk?$AA?5?$AA?$DN?$AA?$DN?$AA?5?$AAp?$AAO?$AAl?$AAd?$AAB?$AAl?$AAo?$AAc?$AAk?$AA?$AA@ 100b4b2c     LIBCMTD:dbgheap.obj
 0003:00008b68       ??_C@_1GE@PCKLOLAO@?$AAf?$AAR?$AAe?$AAa?$AAl?$AAl?$AAo?$AAc?$AA?5?$AA?$HM?$AA?$HM?$AA?5?$AA?$CI?$AA?$CB?$AAf?$AAR?$AAe?$AAa?$AAl?$AAl?$AAo?$AAc?$AA?5?$AA?$CG?$AA?$CG?$AA?5?$AAp?$AAN?$AAe?$AAw?$AAB?$AAl@ 100b4b68     LIBCMTD:dbgheap.obj
 0003:00008be0       ??_C@_0DA@HFBKENN@Error?3?5possible?5heap?5corruption?5@ 100b4be0     LIBCMTD:dbgheap.obj
 0003:00008c20       ??_C@_1IK@DCPKDGNH@?$AAp?$AAO?$AAl?$AAd?$AAB?$AAl?$AAo?$AAc?$AAk?$AA?9?$AA?$DO?$AAn?$AAL?$AAi?$AAn?$AAe?$AA?5?$AA?$DN?$AA?$DN?$AA?5?$AAI?$AAG?$AAN?$AAO?$AAR?$AAE?$AA_?$AAL?$AAI?$AAN?$AAE?$AA?5@ 100b4c20     LIBCMTD:dbgheap.obj
 0003:00008cc8       ??_C@_1EE@GFOPCECE@?$AA_?$AAC?$AAr?$AAt?$AAI?$AAs?$AAV?$AAa?$AAl?$AAi?$AAd?$AAH?$AAe?$AAa?$AAp?$AAP?$AAo?$AAi?$AAn?$AAt?$AAe?$AAr?$AA?$CI?$AAp?$AAU?$AAs?$AAe?$AAr?$AAD?$AAa?$AAt?$AAa@ 100b4cc8     LIBCMTD:dbgheap.obj
 0003:00008d20       ??_C@_0EM@LGFLMAGJ@The?5Block?5at?50x?$CFp?5was?5allocated?5@ 100b4d20     LIBCMTD:dbgheap.obj
 0003:00008d80       ??_C@_0FA@EFEIGJKG@Error?3?5memory?5allocation?3?5bad?5me@ 100b4d80     LIBCMTD:dbgheap.obj
 0003:00008de0       ??_C@_0ED@GPCPBAGP@Invalid?5allocation?5size?3?5?$CFIu?5byt@ 100b4de0     LIBCMTD:dbgheap.obj
 0003:00008e30       ??_C@_0CE@DOFMDOL@Client?5hook?5re?9allocation?5failur@ 100b4e30     LIBCMTD:dbgheap.obj
 0003:00008e5c       ??_C@_0DI@KKJPDPGM@Client?5hook?5re?9allocation?5failur@ 100b4e5c     LIBCMTD:dbgheap.obj
 0003:00008ea0       ??_C@_1BI@HAPNGHDP@?$AA_?$AAe?$AAx?$AAp?$AAa?$AAn?$AAd?$AA_?$AAd?$AAb?$AAg?$AA?$AA@ 100b4ea0     LIBCMTD:dbgheap.obj
 0003:00008ebc       ??_C@_1CE@CJACEFBA@?$AAp?$AAU?$AAs?$AAe?$AAr?$AAD?$AAa?$AAt?$AAa?$AA?5?$AA?$CB?$AA?$DN?$AA?5?$AAN?$AAU?$AAL?$AAL?$AA?$AA@ 100b4ebc     LIBCMTD:dbgheap.obj
 0003:00008ee8       ??_C@_1CM@MMAADDMD@?$AA_?$AAp?$AAF?$AAi?$AAr?$AAs?$AAt?$AAB?$AAl?$AAo?$AAc?$AAk?$AA?5?$AA?$DN?$AA?$DN?$AA?5?$AAp?$AAH?$AAe?$AAa?$AAd?$AA?$AA@ 100b4ee8     LIBCMTD:dbgheap.obj
 0003:00008f1c       ??_C@_1CK@DMAGEMBG@?$AA_?$AAp?$AAL?$AAa?$AAs?$AAt?$AAB?$AAl?$AAo?$AAc?$AAk?$AA?5?$AA?$DN?$AA?$DN?$AA?5?$AAp?$AAH?$AAe?$AAa?$AAd?$AA?$AA@ 100b4f1c     LIBCMTD:dbgheap.obj
 0003:00008f50       ??_C@_1DM@ODCJIDCP@?$AAp?$AAH?$AAe?$AAa?$AAd?$AA?9?$AA?$DO?$AAn?$AAB?$AAl?$AAo?$AAc?$AAk?$AAU?$AAs?$AAe?$AA?5?$AA?$DN?$AA?$DN?$AA?5?$AAn?$AAB?$AAl?$AAo?$AAc?$AAk?$AAU?$AAs?$AAe?$AA?$AA@ 100b4f50     LIBCMTD:dbgheap.obj
 0003:00008f98       ??_C@_1HK@HPCBMDFG@?$AAp?$AAH?$AAe?$AAa?$AAd?$AA?9?$AA?$DO?$AAn?$AAL?$AAi?$AAn?$AAe?$AA?5?$AA?$DN?$AA?$DN?$AA?5?$AAI?$AAG?$AAN?$AAO?$AAR?$AAE?$AA_?$AAL?$AAI?$AAN?$AAE?$AA?5?$AA?$CG?$AA?$CG?$AA?5?$AAp@ 100b4f98     LIBCMTD:dbgheap.obj
 0003:00009030       ??_C@_0IG@LEMBDCJK@HEAP?5CORRUPTION?5DETECTED?3?5after?5@ 100b5030     LIBCMTD:dbgheap.obj
 0003:000090d0       ??_C@_0KE@MBMNHHHN@HEAP?5CORRUPTION?5DETECTED?3?5after?5@ 100b50d0     LIBCMTD:dbgheap.obj
 0003:00009198       ??_C@_0IK@PJCGLBOB@HEAP?5CORRUPTION?5DETECTED?3?5before@ 100b5198     LIBCMTD:dbgheap.obj
 0003:00009240       ??_C@_0KI@JGFOHMEB@HEAP?5CORRUPTION?5DETECTED?3?5before@ 100b5240     LIBCMTD:dbgheap.obj
 0003:00009310       ??_C@_1EO@LHDAJOCM@?$AA_?$AAB?$AAL?$AAO?$AAC?$AAK?$AA_?$AAT?$AAY?$AAP?$AAE?$AA_?$AAI?$AAS?$AA_?$AAV?$AAA?$AAL?$AAI?$AAD?$AA?$CI?$AAp?$AAH?$AAe?$AAa?$AAd?$AA?9?$AA?$DO?$AAn?$AAB?$AAl?$AAo@ 100b5310     LIBCMTD:dbgheap.obj
 0003:00009370       ??_C@_0BL@KEIPLFAC@Client?5hook?5free?5failure?4?6?$AA@ 100b5370     LIBCMTD:dbgheap.obj
 0003:00009390       ??_C@_0EJ@HEIBCIMJ@The?5Block?5at?50x?$CFp?5was?5allocated?5@ 100b5390     LIBCMTD:dbgheap.obj
 0003:000093e8       ??_C@_1BG@MBKOGDLD@?$AA_?$AAm?$AAs?$AAi?$AAz?$AAe?$AA_?$AAd?$AAb?$AAg?$AA?$AA@ 100b53e8     LIBCMTD:dbgheap.obj
 0003:00009404       ??_C@_0CI@JMLBEDHJ@?$CFhs?5located?5at?50x?$CFp?5is?5?$CFIu?5bytes@ 100b5404     LIBCMTD:dbgheap.obj
 0003:00009438       ??_C@_0EG@DGJMPDBH@?$CFhs?5located?5at?50x?$CFp?5is?5?$CFIu?5bytes@ 100b5438     LIBCMTD:dbgheap.obj
 0003:00009490       ??_C@_0IC@BBJIOOJH@HEAP?5CORRUPTION?5DETECTED?3?5on?5top@ 100b5490     LIBCMTD:dbgheap.obj
 0003:00009530       ??_C@_0KA@IHNJJKPL@HEAP?5CORRUPTION?5DETECTED?3?5on?5top@ 100b5530     LIBCMTD:dbgheap.obj
 0003:000095f0       ??_C@_07OHKEFPKJ@DAMAGED?$AA@ 100b55f0     LIBCMTD:dbgheap.obj
 0003:000095fc       ??_C@_0CL@HNNNMKMJ@_heapchk?5fails?5with?5unknown?5retu@ 100b55fc     LIBCMTD:dbgheap.obj
 0003:00009630       ??_C@_0CC@MFFCHFHO@_heapchk?5fails?5with?5_HEAPBADPTR?4@ 100b5630     LIBCMTD:dbgheap.obj
 0003:00009658       ??_C@_0CC@MJGLGBDG@_heapchk?5fails?5with?5_HEAPBADEND?4@ 100b5658     LIBCMTD:dbgheap.obj
 0003:00009680       ??_C@_0CD@CPKEAPBD@_heapchk?5fails?5with?5_HEAPBADNODE@ 100b5680     LIBCMTD:dbgheap.obj
 0003:000096ac       ??_C@_0CE@MKKHMBMK@_heapchk?5fails?5with?5_HEAPBADBEGI@ 100b56ac     LIBCMTD:dbgheap.obj
 0003:000096d8       ??_C@_1BO@GJFDNMNF@?$AA_?$AAC?$AAr?$AAt?$AAS?$AAe?$AAt?$AAD?$AAb?$AAg?$AAF?$AAl?$AAa?$AAg?$AA?$AA@ 100b56d8     LIBCMTD:dbgheap.obj
 0003:00009700       ??_C@_1BHO@NNANJNF@?$AA?$CI?$AAf?$AAN?$AAe?$AAw?$AAB?$AAi?$AAt?$AAs?$AA?$DN?$AA?$DN?$AA_?$AAC?$AAR?$AAT?$AAD?$AAB?$AAG?$AA_?$AAR?$AAE?$AAP?$AAO?$AAR?$AAT?$AA_?$AAF?$AAL?$AAA?$AAG?$AA?$CJ?$AA?5@ 100b5700     LIBCMTD:dbgheap.obj
 0003:000098cc       ??_C@_1DE@GJCKCKEC@?$AA_?$AAC?$AAr?$AAt?$AAD?$AAo?$AAF?$AAo?$AAr?$AAA?$AAl?$AAl?$AAC?$AAl?$AAi?$AAe?$AAn?$AAt?$AAO?$AAb?$AAj?$AAe?$AAc?$AAt?$AAs?$AA?$AA@ 100b58cc     LIBCMTD:dbgheap.obj
 0003:0000990c       ??_C@_1BI@CJGCEEDL@?$AAp?$AAf?$AAn?$AA?5?$AA?$CB?$AA?$DN?$AA?5?$AAN?$AAU?$AAL?$AAL?$AA?$AA@ 100b590c     LIBCMTD:dbgheap.obj
 0003:00009928       ??_C@_0CB@EAAIGELO@Bad?5memory?5block?5found?5at?50x?$CFp?4?6@ 100b5928     LIBCMTD:dbgheap.obj
 0003:00009950       ??_C@_0DP@LEFMFBOD@Bad?5memory?5block?5found?5at?50x?$CFp?4?6@ 100b5950     LIBCMTD:dbgheap.obj
 0003:0000999c       ??_C@_1CE@NJJKELF@?$AA_?$AAC?$AAr?$AAt?$AAM?$AAe?$AAm?$AAC?$AAh?$AAe?$AAc?$AAk?$AAp?$AAo?$AAi?$AAn?$AAt?$AA?$AA@ 100b599c     LIBCMTD:dbgheap.obj
 0003:000099c8       ??_C@_1BM@MIMANDHC@?$AAs?$AAt?$AAa?$AAt?$AAe?$AA?5?$AA?$CB?$AA?$DN?$AA?5?$AAN?$AAU?$AAL?$AAL?$AA?$AA@ 100b59c8     LIBCMTD:dbgheap.obj
 0003:000099ec       ??_C@_1CC@DFPEDFBP@?$AAn?$AAe?$AAw?$AAS?$AAt?$AAa?$AAt?$AAe?$AA?5?$AA?$CB?$AA?$DN?$AA?5?$AAN?$AAU?$AAL?$AAL?$AA?$AA@ 100b59ec     LIBCMTD:dbgheap.obj
 0003:00009a14       ??_C@_1CC@DHPFEMMN@?$AAo?$AAl?$AAd?$AAS?$AAt?$AAa?$AAt?$AAe?$AA?5?$AA?$CB?$AA?$DN?$AA?5?$AAN?$AAU?$AAL?$AAL?$AA?$AA@ 100b5a14     LIBCMTD:dbgheap.obj
 0003:00009a3c       ??_C@_1CE@PDIENACM@?$AA_?$AAC?$AAr?$AAt?$AAM?$AAe?$AAm?$AAD?$AAi?$AAf?$AAf?$AAe?$AAr?$AAe?$AAn?$AAc?$AAe?$AA?$AA@ 100b5a3c     LIBCMTD:dbgheap.obj
 0003:00009a68       ??_C@_0BH@GFGKJDCO@Object?5dump?5complete?4?6?$AA@ 100b5a68     LIBCMTD:dbgheap.obj
 0003:00009a84       ??_C@_0DA@MDLBNIBM@crt?5block?5at?50x?$CFp?0?5subtype?5?$CFx?0?5?$CF@ 100b5a84     LIBCMTD:dbgheap.obj
 0003:00009ac0       ??_C@_0CH@FAGDDGPN@normal?5block?5at?50x?$CFp?0?5?$CFIu?5bytes?5@ 100b5ac0     LIBCMTD:dbgheap.obj
 0003:00009af0       ??_C@_0DD@GHNAAKBB@client?5block?5at?50x?$CFp?0?5subtype?5?$CFx@ 100b5af0     LIBCMTD:dbgheap.obj
 0003:00009b30       ??_C@_06PKLGBFGM@?$HL?$CFld?$HN?5?$AA@ 100b5b30     LIBCMTD:dbgheap.obj
 0003:00009b38       ??_C@_0L@JMEFFCCJ@?$CFhs?$CI?$CFd?$CJ?5?3?5?$AA@ 100b5b38     LIBCMTD:dbgheap.obj
 0003:00009b48       ??_C@_0BE@OIEFNFL@?$CDFile?5Error?$CD?$CI?$CFd?$CJ?5?3?5?$AA@ 100b5b48     LIBCMTD:dbgheap.obj
 0003:00009b60       ??_C@_0BE@KCIPKCIA@Dumping?5objects?5?9?$DO?6?$AA@ 100b5b60     LIBCMTD:dbgheap.obj
 0003:00009b78       ??_C@_0BA@HJBKCELP@?5Data?3?5?$DM?$CFs?$DO?5?$CFs?6?$AA@ 100b5b78     LIBCMTD:dbgheap.obj
 0003:00009b8c       ??_C@_1CG@LPFIACGM@?$AA_?$AAp?$AAr?$AAi?$AAn?$AAt?$AAM?$AAe?$AAm?$AAB?$AAl?$AAo?$AAc?$AAk?$AAD?$AAa?$AAt?$AAa?$AA?$AA@ 100b5b8c     LIBCMTD:dbgheap.obj
 0003:00009bbc       ??_C@_05MKKEDADM@?$CF?42X?5?$AA@ 100b5bbc     LIBCMTD:dbgheap.obj
 0003:00009bc4       ??_C@_0BI@JBFPOEJA@Detected?5memory?5leaks?$CB?6?$AA@ 100b5bc4     LIBCMTD:dbgheap.obj
 0003:00009be0       ??_C@_0BP@DEDHGGGI@Total?5allocations?3?5?$CFId?5bytes?4?6?$AA@ 100b5be0     LIBCMTD:dbgheap.obj
 0003:00009c08       ??_C@_0CB@BLHDAFNE@Largest?5number?5used?3?5?$CFId?5bytes?4?6@ 100b5c08     LIBCMTD:dbgheap.obj
 0003:00009c30       ??_C@_0BO@DACNIABB@?$CFId?5bytes?5in?5?$CFId?5?$CFhs?5Blocks?4?6?$AA@ 100b5c30     LIBCMTD:dbgheap.obj
 0003:00009c54       ??_C@_1CM@MPNIBKGK@?$AA_?$AAC?$AAr?$AAt?$AAM?$AAe?$AAm?$AAD?$AAu?$AAm?$AAp?$AAS?$AAt?$AAa?$AAt?$AAi?$AAs?$AAt?$AAi?$AAc?$AAs?$AA?$AA@ 100b5c54     LIBCMTD:dbgheap.obj
 0003:00009c88       ??_C@_1DK@LFLKFPDA@?$AAo?$AAf?$AAf?$AAs?$AAe?$AAt?$AA?5?$AA?$DN?$AA?$DN?$AA?5?$AA0?$AA?5?$AA?$HM?$AA?$HM?$AA?5?$AAo?$AAf?$AAf?$AAs?$AAe?$AAt?$AA?5?$AA?$DM?$AA?5?$AAs?$AAi?$AAz?$AAe?$AA?$AA@ 100b5c88     LIBCMTD:dbgheap.obj
 0003:00009cd0       ??_C@_1DG@DONCJBBJ@?$AA_?$AAa?$AAl?$AAi?$AAg?$AAn?$AAe?$AAd?$AA_?$AAo?$AAf?$AAf?$AAs?$AAe?$AAt?$AA_?$AAm?$AAa?$AAl?$AAl?$AAo?$AAc?$AA_?$AAd?$AAb?$AAg?$AA?$AA@ 100b5cd0     LIBCMTD:dbgheap.obj
 0003:00009d10       ??_C@_1CE@NPMGPNNP@?$AAI?$AAS?$AA_?$AA2?$AA_?$AAP?$AAO?$AAW?$AA_?$AAN?$AA?$CI?$AAa?$AAl?$AAi?$AAg?$AAn?$AA?$CJ?$AA?$AA@ 100b5d10     LIBCMTD:dbgheap.obj
 0003:00009d3c       ??_C@_1DI@NINIKFFK@?$AA_?$AAa?$AAl?$AAi?$AAg?$AAn?$AAe?$AAd?$AA_?$AAo?$AAf?$AAf?$AAs?$AAe?$AAt?$AA_?$AAr?$AAe?$AAa?$AAl?$AAl?$AAo?$AAc?$AA_?$AAd?$AAb?$AAg?$AA?$AA@ 100b5d3c     LIBCMTD:dbgheap.obj
 0003:00009d80       ??_C@_0DL@PGHMMKNE@Damage?5before?50x?$CFp?5which?5was?5all@ 100b5d80     LIBCMTD:dbgheap.obj
 0003:00009dc8       ??_C@_0EI@NDNJMAJK@The?5block?5at?50x?$CFp?5was?5not?5alloca@ 100b5dc8     LIBCMTD:dbgheap.obj
 0003:00009e20       ??_C@_0EF@PGELACII@The?5block?5at?50x?$CFp?5was?5not?5alloca@ 100b5e20     LIBCMTD:dbgheap.obj
 0003:00009e74       ??_C@_1CG@CEGMHIMN@?$AA_?$AAa?$AAl?$AAi?$AAg?$AAn?$AAe?$AAd?$AA_?$AAm?$AAs?$AAi?$AAz?$AAe?$AA_?$AAd?$AAb?$AAg?$AA?$AA@ 100b5e74     LIBCMTD:dbgheap.obj
 0003:00009ea4       ??_C@_1CC@MOBIKHH@?$AAm?$AAe?$AAm?$AAb?$AAl?$AAo?$AAc?$AAk?$AA?5?$AA?$CB?$AA?$DN?$AA?5?$AAN?$AAU?$AAL?$AAL?$AA?$AA@ 100b5ea4     LIBCMTD:dbgheap.obj
 0003:00009ed0       ??_C@_1HO@MLMGPAFH@?$AA?$CI?$AA?$CC?$AAi?$AAn?$AAc?$AAo?$AAn?$AAs?$AAi?$AAs?$AAt?$AAe?$AAn?$AAt?$AA?5?$AAI?$AAO?$AAB?$AA?5?$AAf?$AAi?$AAe?$AAl?$AAd?$AAs?$AA?$CC?$AA?0?$AA?5?$AAs?$AAt?$AAr?$AAe@ 100b5ed0     LIBCMTD:_flsbuf.obj
 0003:00009f68       ??_C@_1GC@GNCCMPNN@?$AAf?$AA?3?$AA?2?$AAd?$AAd?$AA?2?$AAv?$AAc?$AAt?$AAo?$AAo?$AAl?$AAs?$AA?2?$AAc?$AAr?$AAt?$AA_?$AAb?$AAl?$AAd?$AA?2?$AAs?$AAe?$AAl?$AAf?$AA_?$AAx?$AA8?$AA6?$AA?2?$AAc@ 100b5f68     LIBCMTD:_flsbuf.obj
 0003:00009fe0       ??_C@_1O@CEDCILHN@?$AA?$CI?$AAn?$AAu?$AAl?$AAl?$AA?$CJ?$AA?$AA@ 100b5fe0     LIBCMTD:output.obj
 0003:00009ff0       ??_C@_06OJHGLDPL@?$CInull?$CJ?$AA@ 100b5ff0     LIBCMTD:output.obj
 0003:00009ff8       ___lookuptable             100b5ff8     LIBCMTD:output.obj
 0003:0000a064       ??_C@_0DA@NFBEBPEE@f?3?2dd?2vctools?2crt_bld?2self_x86?2c@ 100b6064     LIBCMTD:output.obj
 0003:0000a0a0       ??_C@_1EK@PNGFDECN@?$AA?$CI?$AA?$CC?$AA?8?$AAn?$AA?8?$AA?5?$AAf?$AAo?$AAr?$AAm?$AAa?$AAt?$AA?5?$AAs?$AAp?$AAe?$AAc?$AAi?$AAf?$AAi?$AAe?$AAr?$AA?5?$AAd?$AAi?$AAs?$AAa?$AAb?$AAl?$AAe?$AAd?$AA?$CC@ 100b60a0     LIBCMTD:output.obj
 0003:0000a0f8       ??_C@_1CC@IFFHEMNF@?$AA?$CI?$AAc?$AAh?$AA?5?$AA?$CB?$AA?$DN?$AA?5?$AA_?$AAT?$AA?$CI?$AA?8?$AA?2?$AA0?$AA?8?$AA?$CJ?$AA?$CJ?$AA?$AA@ 100b60f8     LIBCMTD:output.obj
 0003:0000a120       ??_C@_1BAA@ODEGEDCK@?$AA?$CI?$AA?5?$AA?$CI?$AA_?$AAS?$AAt?$AAr?$AAe?$AAa?$AAm?$AA?9?$AA?$DO?$AA_?$AAf?$AAl?$AAa?$AAg?$AA?5?$AA?$CG?$AA?5?$AA_?$AAI?$AAO?$AAS?$AAT?$AAR?$AAG?$AA?$CJ?$AA?5?$AA?$HM?$AA?$HM?$AA?5@ 100b6120     LIBCMTD:output.obj
 0003:0000a254       ??_C@_1BE@IONLIDNC@?$AA_?$AAo?$AAu?$AAt?$AAp?$AAu?$AAt?$AA_?$AAl?$AA?$AA@ 100b6254     LIBCMTD:output.obj
 0003:0000a270       ??_C@_1GA@HHFOFBLN@?$AAf?$AA?3?$AA?2?$AAd?$AAd?$AA?2?$AAv?$AAc?$AAt?$AAo?$AAo?$AAl?$AAs?$AA?2?$AAc?$AAr?$AAt?$AA_?$AAb?$AAl?$AAd?$AA?2?$AAs?$AAe?$AAl?$AAf?$AA_?$AAx?$AA8?$AA6?$AA?2?$AAc@ 100b6270     LIBCMTD:output.obj
 0003:0000a2e4       ??_C@_1BI@IGILPKD@?$AA_?$AAv?$AAs?$AAp?$AAr?$AAi?$AAn?$AAt?$AAf?$AA_?$AAl?$AA?$AA@ 100b62e4     LIBCMTD:vsprintf.obj
 0003:0000a300       ??_C@_1GE@DPADKNCG@?$AAf?$AA?3?$AA?2?$AAd?$AAd?$AA?2?$AAv?$AAc?$AAt?$AAo?$AAo?$AAl?$AAs?$AA?2?$AAc?$AAr?$AAt?$AA_?$AAb?$AAl?$AAd?$AA?2?$AAs?$AAe?$AAl?$AAf?$AA_?$AAx?$AA8?$AA6?$AA?2?$AAc@ 100b6300     LIBCMTD:vsprintf.obj
 0003:0000a378       ??_C@_1CE@HMKDJHB@?$AA_?$AAv?$AAs?$AAc?$AAp?$AAr?$AAi?$AAn?$AAt?$AAf?$AA_?$AAh?$AAe?$AAl?$AAp?$AAe?$AAr?$AA?$AA@ 100b6378     LIBCMTD:vsprintf.obj
 0003:0000a3a8       ??_C@_1EC@FABAOFFO@?$AA?$CI?$AAc?$AAo?$AAu?$AAn?$AAt?$AA?5?$AA?$DN?$AA?$DN?$AA?5?$AA0?$AA?$CJ?$AA?5?$AA?$HM?$AA?$HM?$AA?5?$AA?$CI?$AAs?$AAt?$AAr?$AAi?$AAn?$AAg?$AA?5?$AA?$CB?$AA?$DN?$AA?5?$AAN?$AAU?$AAL?$AAL?$AA?$CJ@ 100b63a8     LIBCMTD:vsnprnc.obj
 0003:0000a3f8       ??_C@_1CE@PCFPEIFI@?$AA_?$AAv?$AAs?$AAn?$AAp?$AAr?$AAi?$AAn?$AAt?$AAf?$AA_?$AAh?$AAe?$AAl?$AAp?$AAe?$AAr?$AA?$AA@ 100b63f8     LIBCMTD:vsnprnc.obj
 0003:0000a424       ??_C@_1DA@HPBFKMEB@?$AA?$CI?$AA?$CC?$AAB?$AAu?$AAf?$AAf?$AAe?$AAr?$AA?5?$AAt?$AAo?$AAo?$AA?5?$AAs?$AAm?$AAa?$AAl?$AAl?$AA?$CC?$AA?0?$AA?5?$AA0?$AA?$CJ?$AA?$AA@ 100b6424     LIBCMTD:vsnprnc.obj
 0003:0000a460       ??_C@_1EE@OKCKIGFK@?$AAs?$AAt?$AAr?$AAi?$AAn?$AAg?$AA?5?$AA?$CB?$AA?$DN?$AA?5?$AAN?$AAU?$AAL?$AAL?$AA?5?$AA?$CG?$AA?$CG?$AA?5?$AAs?$AAi?$AAz?$AAe?$AAI?$AAn?$AAB?$AAy?$AAt?$AAe?$AAs?$AA?5?$AA?$DO?$AA?5@ 100b6460     LIBCMTD:vsnprnc.obj
 0003:0000a4b4       ??_C@_1BM@BLJALHEF@?$AA_?$AAv?$AAs?$AAp?$AAr?$AAi?$AAn?$AAt?$AAf?$AA_?$AAs?$AA_?$AAl?$AA?$AA@ 100b64b4     LIBCMTD:vsnprnc.obj
 0003:0000a4d8       ??_C@_1BO@MLMCMBKN@?$AAf?$AAo?$AAr?$AAm?$AAa?$AAt?$AA?5?$AA?$CB?$AA?$DN?$AA?5?$AAN?$AAU?$AAL?$AAL?$AA?$AA@ 100b64d8     LIBCMTD:vsnprnc.obj
 0003:0000a4fc       ??_C@_1BO@MMPELNIM@?$AA_?$AAv?$AAs?$AAn?$AAp?$AAr?$AAi?$AAn?$AAt?$AAf?$AA_?$AAs?$AA_?$AAl?$AA?$AA@ 100b64fc     LIBCMTD:vsnprnc.obj
 0003:0000a520       ??_C@_1DM@MADKGDLO@?$AA?$CI?$AAL?$AA?$CC?$AAB?$AAu?$AAf?$AAf?$AAe?$AAr?$AA?5?$AAi?$AAs?$AA?5?$AAt?$AAo?$AAo?$AA?5?$AAs?$AAm?$AAa?$AAl?$AAl?$AA?$CC?$AA?5?$AA?$CG?$AA?$CG?$AA?5?$AA0?$AA?$CJ?$AA?$AA@ 100b6520     LIBCMTD:strcpy_s.obj
 0003:0000a568       ??_C@_1CI@HCPHDDLE@?$AAB?$AAu?$AAf?$AAf?$AAe?$AAr?$AA?5?$AAi?$AAs?$AA?5?$AAt?$AAo?$AAo?$AA?5?$AAs?$AAm?$AAa?$AAl?$AAl?$AA?$AA@ 100b6568     LIBCMTD:strcpy_s.obj
 0003:0000a598       ??_C@_1CG@OFBJMIGJ@?$AA?$CI?$AA?$CI?$AA?$CI?$AA_?$AAS?$AAr?$AAc?$AA?$CJ?$AA?$CJ?$AA?$CJ?$AA?5?$AA?$CB?$AA?$DN?$AA?5?$AAN?$AAU?$AAL?$AAL?$AA?$AA@ 100b6598     LIBCMTD:strcpy_s.obj
 0003:0000a5c8       ??_C@_1BC@CFJEPFGF@?$AAs?$AAt?$AAr?$AAc?$AAp?$AAy?$AA_?$AAs?$AA?$AA@ 100b65c8     LIBCMTD:strcpy_s.obj
 0003:0000a5e0       ??_C@_1GI@BGBNCIMA@?$AAf?$AA?3?$AA?2?$AAd?$AAd?$AA?2?$AAv?$AAc?$AAt?$AAo?$AAo?$AAl?$AAs?$AA?2?$AAc?$AAr?$AAt?$AA_?$AAb?$AAl?$AAd?$AA?2?$AAs?$AAe?$AAl?$AAf?$AA_?$AAx?$AA8?$AA6?$AA?2?$AAc@ 100b65e0     LIBCMTD:strcpy_s.obj
 0003:0000a660       ??_C@_1FC@NCPEPIBI@?$AA?$CI?$AA?$CI?$AA_?$AAD?$AAs?$AAt?$AA?$CJ?$AA?$CJ?$AA?5?$AA?$CB?$AA?$DN?$AA?5?$AAN?$AAU?$AAL?$AAL?$AA?5?$AA?$CG?$AA?$CG?$AA?5?$AA?$CI?$AA?$CI?$AA_?$AAS?$AAi?$AAz?$AAe?$AAI?$AAn?$AAB?$AAy?$AAt@ 100b6660     LIBCMTD:strcpy_s.obj
 0003:0000a6c4       ??_C@_0BG@KLEAJEFJ@Illegal?5byte?5sequence?$AA@ 100b66c4     LIBCMTD:syserr.obj
 0003:0000a6e0       ??_C@_0BE@ICMCHPHH@Directory?5not?5empty?$AA@ 100b66e0     LIBCMTD:syserr.obj
 0003:0000a6f8       ??_C@_0BJ@IHEHINLI@Function?5not?5implemented?$AA@ 100b66f8     LIBCMTD:syserr.obj
 0003:0000a718       ??_C@_0BD@CLHBCGPB@No?5locks?5available?$AA@ 100b6718     LIBCMTD:syserr.obj
 0003:0000a730       ??_C@_0BC@BEDIHIDK@Filename?5too?5long?$AA@ 100b6730     LIBCMTD:syserr.obj
 0003:0000a748       ??_C@_0BK@JAEBMJJM@Resource?5deadlock?5avoided?$AA@ 100b6748     LIBCMTD:syserr.obj
 0003:0000a768       ??_C@_0BB@FCBJFCAJ@Result?5too?5large?$AA@ 100b6768     LIBCMTD:syserr.obj
 0003:0000a77c       ??_C@_0N@MMJPGLJK@Domain?5error?$AA@ 100b677c     LIBCMTD:syserr.obj
 0003:0000a78c       ??_C@_0M@LHEPIIOM@Broken?5pipe?$AA@ 100b678c     LIBCMTD:syserr.obj
 0003:0000a79c       ??_C@_0P@PKCJJLLM@Too?5many?5links?$AA@ 100b679c     LIBCMTD:syserr.obj
 0003:0000a7b0       ??_C@_0BG@DDBFNKBH@Read?9only?5file?5system?$AA@ 100b67b0     LIBCMTD:syserr.obj
 0003:0000a7cc       ??_C@_0N@FEHLOILP@Invalid?5seek?$AA@ 100b67cc     LIBCMTD:syserr.obj
 0003:0000a7dc       ??_C@_0BI@FEALHKLD@No?5space?5left?5on?5device?$AA@ 100b67dc     LIBCMTD:syserr.obj
 0003:0000a7f8       ??_C@_0P@LFMMIPAE@File?5too?5large?$AA@ 100b67f8     LIBCMTD:syserr.obj
 0003:0000a80c       ??_C@_0CE@ONOKNLPF@Inappropriate?5I?1O?5control?5operat@ 100b680c     LIBCMTD:syserr.obj
 0003:0000a838       ??_C@_0BE@INBJMKGG@Too?5many?5open?5files?$AA@ 100b6838     LIBCMTD:syserr.obj
 0003:0000a850       ??_C@_0BO@IIFBODJE@Too?5many?5open?5files?5in?5system?$AA@ 100b6850     LIBCMTD:syserr.obj
 0003:0000a874       ??_C@_0BB@HMGGCEBG@Invalid?5argument?$AA@ 100b6874     LIBCMTD:syserr.obj
 0003:0000a888       ??_C@_0P@NDHGCGKE@Is?5a?5directory?$AA@ 100b6888     LIBCMTD:syserr.obj
 0003:0000a89c       ??_C@_0BA@CJBACOOL@Not?5a?5directory?$AA@ 100b689c     LIBCMTD:syserr.obj
 0003:0000a8b0       ??_C@_0P@NLEIANHE@No?5such?5device?$AA@ 100b68b0     LIBCMTD:syserr.obj
 0003:0000a8c4       ??_C@_0O@OAMDNOCP@Improper?5link?$AA@ 100b68c4     LIBCMTD:syserr.obj
 0003:0000a8d4       ??_C@_0M@NAAJNNGH@File?5exists?$AA@ 100b68d4     LIBCMTD:syserr.obj
 0003:0000a8e4       ??_C@_0BA@BIBLIOEK@Resource?5device?$AA@ 100b68e4     LIBCMTD:syserr.obj
 0003:0000a8f8       ??_C@_0O@NIPGCINC@Unknown?5error?$AA@ 100b68f8     LIBCMTD:syserr.obj
 0003:0000a908       ??_C@_0M@LOEHLCJD@Bad?5address?$AA@ 100b6908     LIBCMTD:syserr.obj
 0003:0000a918       ??_C@_0BC@HFNFNKAI@Permission?5denied?$AA@ 100b6918     LIBCMTD:syserr.obj
 0003:0000a930       ??_C@_0BB@IMDKMPFB@Not?5enough?5space?$AA@ 100b6930     LIBCMTD:syserr.obj
 0003:0000a944       ??_C@_0CB@EPFKGNAK@Resource?5temporarily?5unavailable@ 100b6944     LIBCMTD:syserr.obj
 0003:0000a96c       ??_C@_0BD@LOHELEP@No?5child?5processes?$AA@ 100b696c     LIBCMTD:syserr.obj
 0003:0000a984       ??_C@_0BE@NFGDDCEF@Bad?5file?5descriptor?$AA@ 100b6984     LIBCMTD:syserr.obj
 0003:0000a99c       ??_C@_0BC@HKPNECK@Exec?5format?5error?$AA@ 100b699c     LIBCMTD:syserr.obj
 0003:0000a9b4       ??_C@_0BC@MFFGCDFL@Arg?5list?5too?5long?$AA@ 100b69b4     LIBCMTD:syserr.obj
 0003:0000a9cc       ??_C@_0BK@DPKMCKJ@No?5such?5device?5or?5address?$AA@ 100b69cc     LIBCMTD:syserr.obj
 0003:0000a9ec       ??_C@_0BD@KKNFOBBD@Input?1output?5error?$AA@ 100b69ec     LIBCMTD:syserr.obj
 0003:0000aa04       ??_C@_0BK@FJBOAFDK@Interrupted?5function?5call?$AA@ 100b6a04     LIBCMTD:syserr.obj
 0003:0000aa24       ??_C@_0BA@FKIAIBGA@No?5such?5process?$AA@ 100b6a24     LIBCMTD:syserr.obj
 0003:0000aa38       ??_C@_0BK@FMDHKPNF@No?5such?5file?5or?5directory?$AA@ 100b6a38     LIBCMTD:syserr.obj
 0003:0000aa58       ??_C@_0BI@BJFCGOHL@Operation?5not?5permitted?$AA@ 100b6a58     LIBCMTD:syserr.obj
 0003:0000aa74       ??_C@_08INEPGKHH@No?5error?$AA@ 100b6a74     LIBCMTD:syserr.obj
 0003:0000aa80       ??_C@_1BE@NDMJHJJG@?$AAs?$AAt?$AAr?$AAn?$AAc?$AAp?$AAy?$AA_?$AAs?$AA?$AA@ 100b6a80     LIBCMTD:strncpy_s.obj
 0003:0000aa98       ??_C@_1GK@PAJJBKJF@?$AAf?$AA?3?$AA?2?$AAd?$AAd?$AA?2?$AAv?$AAc?$AAt?$AAo?$AAo?$AAl?$AAs?$AA?2?$AAc?$AAr?$AAt?$AA_?$AAb?$AAl?$AAd?$AA?2?$AAs?$AAe?$AAl?$AAf?$AA_?$AAx?$AA8?$AA6?$AA?2?$AAc@ 100b6a98     LIBCMTD:strncpy_s.obj
 0003:0000ab18       ??_C@_1BK@FHMHFMNL@?$AA_?$AAv?$AAs?$AAn?$AAp?$AAr?$AAi?$AAn?$AAt?$AAf?$AA_?$AAl?$AA?$AA@ 100b6b18     LIBCMTD:vsnprint.obj
 0003:0000ab38       ??_C@_0CP@BNKDODJJ@f?3?2dd?2vctools?2crt_bld?2self_x86?2c@ 100b6b38     LIBCMTD:_file.obj
 0003:0000ab98       ??_C@_1CI@KEDPFCAL@?$AA?$CI?$AA?$CK?$AAm?$AAo?$AAd?$AAe?$AA?5?$AA?$DN?$AA?$DN?$AA?5?$AA_?$AAT?$AA?$CI?$AA?8?$AA?2?$AA0?$AA?8?$AA?$CJ?$AA?$CJ?$AA?$AA@ 100b6b98     LIBCMTD:_open.obj
 0003:0000abc8       ??_C@_1BE@DONHJJKE@?$AA_?$AAo?$AAp?$AAe?$AAn?$AAf?$AAi?$AAl?$AAe?$AA?$AA@ 100b6bc8     LIBCMTD:_open.obj
 0003:0000abe0       ??_C@_1DK@PKMJBLLN@?$AA?$CI?$AA?$CC?$AAI?$AAn?$AAv?$AAa?$AAl?$AAi?$AAd?$AA?5?$AAf?$AAi?$AAl?$AAe?$AA?5?$AAo?$AAp?$AAe?$AAn?$AA?5?$AAm?$AAo?$AAd?$AAe?$AA?$CC?$AA?0?$AA0?$AA?$CJ?$AA?$AA@ 100b6be0     LIBCMTD:_open.obj
 0003:0000ac28       ??_C@_1BK@HGLMNMEC@?$AAm?$AAo?$AAd?$AAe?$AA?5?$AA?$CB?$AA?$DN?$AA?5?$AAN?$AAU?$AAL?$AAL?$AA?$AA@ 100b6c28     LIBCMTD:_open.obj
 0003:0000ac48       ??_C@_1FO@POGAHKND@?$AAf?$AA?3?$AA?2?$AAd?$AAd?$AA?2?$AAv?$AAc?$AAt?$AAo?$AAo?$AAl?$AAs?$AA?2?$AAc?$AAr?$AAt?$AA_?$AAb?$AAl?$AAd?$AA?2?$AAs?$AAe?$AAl?$AAf?$AA_?$AAx?$AA8?$AA6?$AA?2?$AAc@ 100b6c48     LIBCMTD:_open.obj
 0003:0000acb8       ??_C@_1CC@JBMDNKJP@?$AAf?$AAi?$AAl?$AAe?$AAn?$AAa?$AAm?$AAe?$AA?5?$AA?$CB?$AA?$DN?$AA?5?$AAN?$AAU?$AAL?$AAL?$AA?$AA@ 100b6cb8     LIBCMTD:_open.obj
 0003:0000ace0       ??_C@_0DA@NLPACBPK@f?3?2dd?2vctools?2crt_bld?2self_x86?2c@ 100b6ce0     LIBCMTD:stream.obj
 0003:0000ad1c       ??_C@_1BA@IIKEPOGH@?$AA_?$AAf?$AAi?$AAl?$AAb?$AAu?$AAf?$AA?$AA@ 100b6d1c     LIBCMTD:_filbuf.obj
 0003:0000ad30       ??_C@_1GC@CHFNJKFB@?$AAf?$AA?3?$AA?2?$AAd?$AAd?$AA?2?$AAv?$AAc?$AAt?$AAo?$AAo?$AAl?$AAs?$AA?2?$AAc?$AAr?$AAt?$AA_?$AAb?$AAl?$AAd?$AA?2?$AAs?$AAe?$AAl?$AAf?$AA_?$AAx?$AA8?$AA6?$AA?2?$AAc@ 100b6d30     LIBCMTD:_filbuf.obj
 0003:0000ada8       ??_C@_1BA@JGHIEKKM@?$AA_?$AAf?$AAi?$AAl?$AAe?$AAn?$AAo?$AA?$AA@ 100b6da8     LIBCMTD:fileno.obj
 0003:0000adc0       ??_C@_1GA@PBJHELNC@?$AAf?$AA?3?$AA?2?$AAd?$AAd?$AA?2?$AAv?$AAc?$AAt?$AAo?$AAo?$AAl?$AAs?$AA?2?$AAc?$AAr?$AAt?$AA_?$AAb?$AAl?$AAd?$AA?2?$AAs?$AAe?$AAl?$AAf?$AA_?$AAx?$AA8?$AA6?$AA?2?$AAc@ 100b6dc0     LIBCMTD:fileno.obj
 0003:0000ae34       ??_C@_1CK@DDKKOLAN@?$AAs?$AAi?$AAz?$AAe?$AAI?$AAn?$AAB?$AAy?$AAt?$AAe?$AAs?$AA?5?$AA?$DO?$AA?$DN?$AA?5?$AAc?$AAo?$AAu?$AAn?$AAt?$AA?$AA@ 100b6e34     LIBCMTD:memcpy_s.obj
 0003:0000ae68       ??_C@_1BI@DCHLDCPP@?$AAs?$AAr?$AAc?$AA?5?$AA?$CB?$AA?$DN?$AA?5?$AAN?$AAU?$AAL?$AAL?$AA?$AA@ 100b6e68     LIBCMTD:memcpy_s.obj
 0003:0000ae84       ??_C@_1BC@GKHDJMGB@?$AAm?$AAe?$AAm?$AAc?$AAp?$AAy?$AA_?$AAs?$AA?$AA@ 100b6e84     LIBCMTD:memcpy_s.obj
 0003:0000aea0       ??_C@_1GE@NEOPGGBM@?$AAf?$AA?3?$AA?2?$AAd?$AAd?$AA?2?$AAv?$AAc?$AAt?$AAo?$AAo?$AAl?$AAs?$AA?2?$AAc?$AAr?$AAt?$AA_?$AAb?$AAl?$AAd?$AA?2?$AAs?$AAe?$AAl?$AAf?$AA_?$AAx?$AA8?$AA6?$AA?2?$AAc@ 100b6ea0     LIBCMTD:memcpy_s.obj
 0003:0000af18       ??_C@_1BI@GKKCBDMD@?$AAd?$AAs?$AAt?$AA?5?$AA?$CB?$AA?$DN?$AA?5?$AAN?$AAU?$AAL?$AAL?$AA?$AA@ 100b6f18     LIBCMTD:memcpy_s.obj
 0003:0000af38       ??_C@_1GE@MIMBMOF@?$AAf?$AA?3?$AA?2?$AAd?$AAd?$AA?2?$AAv?$AAc?$AAt?$AAo?$AAo?$AAl?$AAs?$AA?2?$AAc?$AAr?$AAt?$AA_?$AAb?$AAl?$AAd?$AA?2?$AAs?$AAe?$AAl?$AAf?$AA_?$AAx?$AA8?$AA6?$AA?2?$AAc@ 100b6f38     LIBCMTD:_freebuf.obj
 0003:0000afb0       ??_C@_1BO@KIJENGPH@?$AAs?$AAt?$AAr?$AAe?$AAa?$AAm?$AA?5?$AA?$CB?$AA?$DN?$AA?5?$AAN?$AAU?$AAL?$AAL?$AA?$AA@ 100b6fb0     LIBCMTD:_freebuf.obj
 0003:0000afd4       ??_C@_1DE@MMOGFGHF@?$AAs?$AAt?$AAr?$AAc?$AAp?$AAy?$AA_?$AAs?$AA?$CI?$AA?$CK?$AAe?$AAn?$AAv?$AA?0?$AA?5?$AAc?$AAc?$AAh?$AAa?$AAr?$AAs?$AA?0?$AA?5?$AAp?$AA?$CJ?$AA?$AA@ 100b6fd4     LIBCMTD:stdenvp.obj
 0003:0000b014       ??_C@_1BC@GHMCNHHL@?$AA_?$AAs?$AAe?$AAt?$AAe?$AAn?$AAv?$AAp?$AA?$AA@ 100b7014     LIBCMTD:stdenvp.obj
 0003:0000b030       ??_C@_1GC@DGBFLDBN@?$AAf?$AA?3?$AA?2?$AAd?$AAd?$AA?2?$AAv?$AAc?$AAt?$AAo?$AAo?$AAl?$AAs?$AA?2?$AAc?$AAr?$AAt?$AA_?$AAb?$AAl?$AAd?$AA?2?$AAs?$AAe?$AAl?$AAf?$AA_?$AAx?$AA8?$AA6?$AA?2?$AAc@ 100b7030     LIBCMTD:stdenvp.obj
 0003:0000b0a8       ??_C@_0DB@BMEBJJKP@f?3?2dd?2vctools?2crt_bld?2self_x86?2c@ 100b70a8     LIBCMTD:stdenvp.obj
 0003:0000b0e4       ??_C@_0DB@OEPBJOLC@f?3?2dd?2vctools?2crt_bld?2self_x86?2c@ 100b70e4     LIBCMTD:stdargv.obj
 0003:0000b120       ??_C@_0CP@PPLBCJDN@f?3?2dd?2vctools?2crt_bld?2self_x86?2c@ 100b7120     LIBCMTD:a_env.obj
 0003:0000b158       ??_C@_1GE@JDDMFOID@?$AAf?$AA?3?$AA?2?$AAd?$AAd?$AA?2?$AAv?$AAc?$AAt?$AAo?$AAo?$AAl?$AAs?$AA?2?$AAc?$AAr?$AAt?$AA_?$AAb?$AAl?$AAd?$AA?2?$AAs?$AAe?$AAl?$AAf?$AA_?$AAx?$AA8?$AA6?$AA?2?$AAc@ 100b7158     LIBCMTD:heapinit.obj
 0003:0000b1d0       ??_C@_1BC@DENNNKIM@?$AA_?$AAc?$AAr?$AAt?$AAh?$AAe?$AAa?$AAp?$AA?$AA@ 100b71d0     LIBCMTD:heapinit.obj
 0003:0000b1e8       __XcptActTab               100b71e8     LIBCMTD:winxfltr.obj
 0003:0000b278       __First_FPE_Indx           100b7278     LIBCMTD:winxfltr.obj
 0003:0000b27c       __Num_FPE                  100b727c     LIBCMTD:winxfltr.obj
 0003:0000b280       __XcptActTabSize           100b7280     LIBCMTD:winxfltr.obj
 0003:0000b284       __XcptActTabCount          100b7284     LIBCMTD:winxfltr.obj
 0003:0000b2a8       ??_C@_0CP@MKONOLCI@f?3?2dd?2vctools?2crt_bld?2self_x86?2c@ 100b72a8     LIBCMTD:mlock.obj
 0003:0000b2e0       ??_C@_1NK@LOFHIHFC@?$AAf?$AAM?$AAo?$AAd?$AAe?$AA?5?$AA?$DN?$AA?$DN?$AA?5?$AA_?$AAC?$AAR?$AAT?$AAD?$AAB?$AAG?$AA_?$AAR?$AAE?$AAP?$AAO?$AAR?$AAT?$AA_?$AAM?$AAO?$AAD?$AAE?$AA?5?$AA?$HM?$AA?$HM?$AA?5@ 100b72e0     LIBCMTD:dbgrptt.obj
 0003:0000b3e8       ??_C@_1CE@FIHIECNJ@?$AA_?$AAC?$AAr?$AAt?$AAS?$AAe?$AAt?$AAR?$AAe?$AAp?$AAo?$AAr?$AAt?$AAM?$AAo?$AAd?$AAe?$AA?$AA@ 100b73e8     LIBCMTD:dbgrptt.obj
 0003:0000b418       ??_C@_1GC@FIGJJMEN@?$AAf?$AA?3?$AA?2?$AAd?$AAd?$AA?2?$AAv?$AAc?$AAt?$AAo?$AAo?$AAl?$AAs?$AA?2?$AAc?$AAr?$AAt?$AA_?$AAb?$AAl?$AAd?$AA?2?$AAs?$AAe?$AAl?$AAf?$AA_?$AAx?$AA8?$AA6?$AA?2?$AAc@ 100b7418     LIBCMTD:dbgrptt.obj
 0003:0000b490       ??_C@_1FA@IFFFOLDJ@?$AAn?$AAR?$AAp?$AAt?$AAT?$AAy?$AAp?$AAe?$AA?5?$AA?$DO?$AA?$DN?$AA?5?$AA0?$AA?5?$AA?$CG?$AA?$CG?$AA?5?$AAn?$AAR?$AAp?$AAt?$AAT?$AAy?$AAp?$AAe?$AA?5?$AA?$DM?$AA?5?$AA_?$AAC?$AAR?$AAT@ 100b7490     LIBCMTD:dbgrptt.obj
 0003:0000b4f0       ??_C@_1CE@IKKEDCME@?$AA_?$AAC?$AAr?$AAt?$AAS?$AAe?$AAt?$AAR?$AAe?$AAp?$AAo?$AAr?$AAt?$AAF?$AAi?$AAl?$AAe?$AA?$AA@ 100b74f0     LIBCMTD:dbgrptt.obj
 0003:0000b520       ??_C@_1HO@PJOFIKFE@?$AA_?$AAC?$AAr?$AAt?$AAD?$AAb?$AAg?$AAR?$AAe?$AAp?$AAo?$AAr?$AAt?$AA?3?$AA?5?$AAS?$AAt?$AAr?$AAi?$AAn?$AAg?$AA?5?$AAt?$AAo?$AAo?$AA?5?$AAl?$AAo?$AAn?$AAg?$AA?5?$AAo@ 100b7520     LIBCMTD:dbgrptt.obj
 0003:0000b5b8       ??_C@_1MC@IGEECMDB@?$AAw?$AAc?$AAs?$AAc?$AAp?$AAy?$AA_?$AAs?$AA?$CI?$AAs?$AAz?$AAO?$AAu?$AAt?$AAM?$AAe?$AAs?$AAs?$AAa?$AAg?$AAe?$AA2?$AA?0?$AA?5?$AA4?$AA0?$AA9?$AA6?$AA?0?$AA?5?$AAL?$AA?$CC@ 100b75b8     LIBCMTD:dbgrptt.obj
 0003:0000b6a0       ??_C@_1IM@OOKIFKOH@?$AAe?$AA?5?$AA?$DN?$AA?5?$AAm?$AAb?$AAs?$AAt?$AAo?$AAw?$AAc?$AAs?$AA_?$AAs?$AA?$CI?$AA?$CG?$AAr?$AAe?$AAt?$AA?0?$AA?5?$AAs?$AAz?$AAO?$AAu?$AAt?$AAM?$AAe?$AAs?$AAs?$AAa?$AAg@ 100b76a0     LIBCMTD:dbgrptt.obj
 0003:0000b748       ??_C@_1FI@IBIOIHEG@?$AAs?$AAt?$AAr?$AAc?$AAp?$AAy?$AA_?$AAs?$AA?$CI?$AAs?$AAz?$AAO?$AAu?$AAt?$AAM?$AAe?$AAs?$AAs?$AAa?$AAg?$AAe?$AA?0?$AA?5?$AA4?$AA0?$AA9?$AA6?$AA?0?$AA?5?$AAs?$AAz?$AAL@ 100b7748     LIBCMTD:dbgrptt.obj
 0003:0000b7b8       ??_C@_1JG@CPKCIOEE@?$AAs?$AAt?$AAr?$AAc?$AAp?$AAy?$AA_?$AAs?$AA?$CI?$AAs?$AAz?$AAO?$AAu?$AAt?$AAM?$AAe?$AAs?$AAs?$AAa?$AAg?$AAe?$AA?0?$AA?5?$AA4?$AA0?$AA9?$AA6?$AA?0?$AA?5?$AA?$CC?$AA_?$AAC@ 100b77b8     LIBCMTD:dbgrptt.obj
 0003:0000b86c       ??_C@_0M@IPILFDFN@?$CFs?$CI?$CFd?$CJ?5?3?5?$CFs?$AA@ 100b786c     LIBCMTD:dbgrptt.obj
 0003:0000b880       ??_C@_1EI@LDHJEDO@?$AAs?$AAt?$AAr?$AAc?$AAa?$AAt?$AA_?$AAs?$AA?$CI?$AAs?$AAz?$AAL?$AAi?$AAn?$AAe?$AAM?$AAe?$AAs?$AAs?$AAa?$AAg?$AAe?$AA?0?$AA?5?$AA4?$AA0?$AA9?$AA6?$AA?0?$AA?5?$AA?$CC?$AA?2@ 100b7880     LIBCMTD:dbgrptt.obj
 0003:0000b8d8       ??_C@_01LIIJDEN@?$AN?$AA@  100b78d8     LIBCMTD:dbgrptt.obj
 0003:0000b8e0       ??_C@_1EI@CACDLAFK@?$AAs?$AAt?$AAr?$AAc?$AAa?$AAt?$AA_?$AAs?$AA?$CI?$AAs?$AAz?$AAL?$AAi?$AAn?$AAe?$AAM?$AAe?$AAs?$AAs?$AAa?$AAg?$AAe?$AA?0?$AA?5?$AA4?$AA0?$AA9?$AA6?$AA?0?$AA?5?$AA?$CC?$AA?2@ 100b78e0     LIBCMTD:dbgrptt.obj
 0003:0000b938       ??_C@_1FK@NPGBPOFO@?$AAs?$AAt?$AAr?$AAc?$AAa?$AAt?$AA_?$AAs?$AA?$CI?$AAs?$AAz?$AAL?$AAi?$AAn?$AAe?$AAM?$AAe?$AAs?$AAs?$AAa?$AAg?$AAe?$AA?0?$AA?5?$AA4?$AA0?$AA9?$AA6?$AA?0?$AA?5?$AAs?$AAz@ 100b7938     LIBCMTD:dbgrptt.obj
 0003:0000b9a8       ??_C@_1KK@GIGAEDMO@?$AAs?$AAt?$AAr?$AAc?$AAp?$AAy?$AA_?$AAs?$AA?$CI?$AAs?$AAz?$AAL?$AAi?$AAn?$AAe?$AAM?$AAe?$AAs?$AAs?$AAa?$AAg?$AAe?$AA?0?$AA?5?$AA4?$AA0?$AA9?$AA6?$AA?0?$AA?5?$AAs?$AAz@ 100b79a8     LIBCMTD:dbgrptt.obj
 0003:0000ba74       ??_C@_0BC@LAIDCHCH@Assertion?5failed?$CB?$AA@ 100b7a74     LIBCMTD:dbgrptt.obj
 0003:0000ba8c       ??_C@_0BD@CAENFOHP@Assertion?5failed?3?5?$AA@ 100b7a8c     LIBCMTD:dbgrptt.obj
 0003:0000baa4       ??_C@_0CL@EACFGMNB@_CrtDbgReport?3?5String?5too?5long?5o@ 100b7aa4     LIBCMTD:dbgrptt.obj
 0003:0000bad8       ??_C@_1JI@GAALPGBM@?$AAs?$AAt?$AAr?$AAc?$AAp?$AAy?$AA_?$AAs?$AA?$CI?$AAs?$AAz?$AAU?$AAs?$AAe?$AAr?$AAM?$AAe?$AAs?$AAs?$AAa?$AAg?$AAe?$AA?0?$AA?5?$AA4?$AA0?$AA9?$AA6?$AA?0?$AA?5?$AA?$CC?$AA_@ 100b7ad8     LIBCMTD:dbgrptt.obj
 0003:0000bb90       ??_C@_01EEMJAFIK@?6?$AA@   100b7b90     LIBCMTD:dbgrptt.obj
 0003:0000bb94       ??_C@_07BHGABMGB@?0?5Line?5?$AA@ 100b7b94     LIBCMTD:dbgrptt.obj
 0003:0000bba0       ??_C@_0P@DFJNDPOP@?$DMfile?5unknown?$DO?$AA@ 100b7ba0     LIBCMTD:dbgrptt.obj
 0003:0000bbb4       ??_C@_0CG@BNGLOCEO@Second?5Chance?5Assertion?5Failed?3?5@ 100b7bb4     LIBCMTD:dbgrptt.obj
 0003:0000bbe8       ??_C@_1FA@JPHJBHEM@?$AA_?$AAi?$AAt?$AAo?$AAa?$AA_?$AAs?$AA?$CI?$AAn?$AAL?$AAi?$AAn?$AAe?$AA?0?$AA?5?$AAs?$AAz?$AAL?$AAi?$AAn?$AAe?$AAM?$AAe?$AAs?$AAs?$AAa?$AAg?$AAe?$AA?0?$AA?5?$AA4?$AA0@ 100b7be8     LIBCMTD:dbgrptt.obj
 0003:0000bc48       ??_C@_1CA@KHJHLKA@?$AA_?$AAV?$AAC?$AAr?$AAt?$AAD?$AAb?$AAg?$AAR?$AAe?$AAp?$AAo?$AAr?$AAt?$AAA?$AA?$AA@ 100b7c48     LIBCMTD:dbgrptt.obj
 0003:0000bc70       ??_C@_1IE@CPGKIAGP@?$AAw?$AAc?$AAs?$AAt?$AAo?$AAm?$AAb?$AAs?$AA_?$AAs?$AA?$CI?$AA?$CG?$AAr?$AAe?$AAt?$AA?0?$AA?5?$AAs?$AAz?$AAa?$AAO?$AAu?$AAt?$AAM?$AAe?$AAs?$AAs?$AAa?$AAg?$AAe?$AA?0?$AA?5@ 100b7c70     LIBCMTD:dbgrptt.obj
 0003:0000bd10       ??_C@_0DP@GNPEPHJD@_CrtDbgReport?3?5String?5too?5long?5o@ 100b7d10     LIBCMTD:dbgrptt.obj
 0003:0000bd60       ??_C@_1MA@LBAMNNOB@?$AAs?$AAt?$AAr?$AAc?$AAp?$AAy?$AA_?$AAs?$AA?$CI?$AAs?$AAz?$AAO?$AAu?$AAt?$AAM?$AAe?$AAs?$AAs?$AAa?$AAg?$AAe?$AA2?$AA?0?$AA?5?$AA4?$AA0?$AA9?$AA6?$AA?0?$AA?5?$AA?$CC?$AA_@ 100b7d60     LIBCMTD:dbgrptt.obj
 0003:0000be48       ??_C@_1JC@EOAPFDLN@?$AAw?$AAc?$AAs?$AAt?$AAo?$AAm?$AAb?$AAs?$AA_?$AAs?$AA?$CI?$AA?$CI?$AA?$CI?$AAv?$AAo?$AAi?$AAd?$AA?5?$AA?$CK?$AA?$CJ?$AA0?$AA?$CJ?$AA?0?$AA?5?$AAs?$AAz?$AAO?$AAu?$AAt?$AAM?$AAe?$AAs@ 100b7e48     LIBCMTD:dbgrptt.obj
 0003:0000bef8       ??_C@_1FI@DBAIJPJE@?$AAw?$AAc?$AAs?$AAc?$AAp?$AAy?$AA_?$AAs?$AA?$CI?$AAs?$AAz?$AAO?$AAu?$AAt?$AAM?$AAe?$AAs?$AAs?$AAa?$AAg?$AAe?$AA?0?$AA?5?$AA4?$AA0?$AA9?$AA6?$AA?0?$AA?5?$AAs?$AAz?$AAL@ 100b7ef8     LIBCMTD:dbgrptt.obj
 0003:0000bf64       ??_C@_1BI@JIDBEPIG@?$AA?$CF?$AAs?$AA?$CI?$AA?$CF?$AAd?$AA?$CJ?$AA?5?$AA?3?$AA?5?$AA?$CF?$AAs?$AA?$AA@ 100b7f64     LIBCMTD:dbgrptt.obj
 0003:0000bf80       ??_C@_1EK@PHCBEDKB@?$AAw?$AAc?$AAs?$AAc?$AAa?$AAt?$AA_?$AAs?$AA?$CI?$AAs?$AAz?$AAL?$AAi?$AAn?$AAe?$AAM?$AAe?$AAs?$AAs?$AAa?$AAg?$AAe?$AA?0?$AA?5?$AA4?$AA0?$AA9?$AA6?$AA?0?$AA?5?$AAL?$AA?$CC@ 100b7f80     LIBCMTD:dbgrptt.obj
 0003:0000bfd8       ??_C@_13CMNBPIDO@?$AA?$AN?$AA?$AA@ 100b7fd8     LIBCMTD:dbgrptt.obj
 0003:0000bfe0       ??_C@_1EK@NMDFGHMF@?$AAw?$AAc?$AAs?$AAc?$AAa?$AAt?$AA_?$AAs?$AA?$CI?$AAs?$AAz?$AAL?$AAi?$AAn?$AAe?$AAM?$AAe?$AAs?$AAs?$AAa?$AAg?$AAe?$AA?0?$AA?5?$AA4?$AA0?$AA9?$AA6?$AA?0?$AA?5?$AAL?$AA?$CC@ 100b7fe0     LIBCMTD:dbgrptt.obj
 0003:0000c038       ??_C@_1FK@HPADHBBD@?$AAw?$AAc?$AAs?$AAc?$AAa?$AAt?$AA_?$AAs?$AA?$CI?$AAs?$AAz?$AAL?$AAi?$AAn?$AAe?$AAM?$AAe?$AAs?$AAs?$AAa?$AAg?$AAe?$AA?0?$AA?5?$AA4?$AA0?$AA9?$AA6?$AA?0?$AA?5?$AAs?$AAz@ 100b8038     LIBCMTD:dbgrptt.obj
 0003:0000c0a8       ??_C@_1KO@DGAHENCH@?$AAw?$AAc?$AAs?$AAc?$AAp?$AAy?$AA_?$AAs?$AA?$CI?$AAs?$AAz?$AAL?$AAi?$AAn?$AAe?$AAM?$AAe?$AAs?$AAs?$AAa?$AAg?$AAe?$AA?0?$AA?5?$AA4?$AA0?$AA9?$AA6?$AA?0?$AA?5?$AAs?$AAz@ 100b80a8     LIBCMTD:dbgrptt.obj
 0003:0000c178       ??_C@_1CE@OJBNHDMO@?$AAA?$AAs?$AAs?$AAe?$AAr?$AAt?$AAi?$AAo?$AAn?$AA?5?$AAf?$AAa?$AAi?$AAl?$AAe?$AAd?$AA?$CB?$AA?$AA@ 100b8178     LIBCMTD:dbgrptt.obj
 0003:0000c1a4       ??_C@_1CG@FFFGGODN@?$AAA?$AAs?$AAs?$AAe?$AAr?$AAt?$AAi?$AAo?$AAn?$AA?5?$AAf?$AAa?$AAi?$AAl?$AAe?$AAd?$AA?3?$AA?5?$AA?$AA@ 100b81a4     LIBCMTD:dbgrptt.obj
 0003:0000c1d8       ??_C@_1JK@KHFABAEO@?$AAw?$AAc?$AAs?$AAc?$AAp?$AAy?$AA_?$AAs?$AA?$CI?$AAs?$AAz?$AAU?$AAs?$AAe?$AAr?$AAM?$AAe?$AAs?$AAs?$AAa?$AAg?$AAe?$AA?0?$AA?5?$AA4?$AA0?$AA9?$AA6?$AA?0?$AA?5?$AAL?$AA?$CC@ 100b81d8     LIBCMTD:dbgrptt.obj
 0003:0000c290       ??_C@_13LBAGMAIH@?$AA?6?$AA?$AA@ 100b8290     LIBCMTD:dbgrptt.obj
 0003:0000c294       ??_C@_1BA@ELMMDCFC@?$AA?0?$AA?5?$AAL?$AAi?$AAn?$AAe?$AA?5?$AA?$AA@ 100b8294     LIBCMTD:dbgrptt.obj
 0003:0000c2a8       ??_C@_1BO@OCHMLCAG@?$AA?$DM?$AAf?$AAi?$AAl?$AAe?$AA?5?$AAu?$AAn?$AAk?$AAn?$AAo?$AAw?$AAn?$AA?$DO?$AA?$AA@ 100b82a8     LIBCMTD:dbgrptt.obj
 0003:0000c2d0       ??_C@_1EM@MJFLEDMB@?$AAS?$AAe?$AAc?$AAo?$AAn?$AAd?$AA?5?$AAC?$AAh?$AAa?$AAn?$AAc?$AAe?$AA?5?$AAA?$AAs?$AAs?$AAe?$AAr?$AAt?$AAi?$AAo?$AAn?$AA?5?$AAF?$AAa?$AAi?$AAl?$AAe?$AAd?$AA?3?$AA?5@ 100b82d0     LIBCMTD:dbgrptt.obj
 0003:0000c330       ??_C@_1FA@CNLLOMHI@?$AA_?$AAi?$AAt?$AAo?$AAw?$AA_?$AAs?$AA?$CI?$AAn?$AAL?$AAi?$AAn?$AAe?$AA?0?$AA?5?$AAs?$AAz?$AAL?$AAi?$AAn?$AAe?$AAM?$AAe?$AAs?$AAs?$AAa?$AAg?$AAe?$AA?0?$AA?5?$AA4?$AA0@ 100b8330     LIBCMTD:dbgrptt.obj
 0003:0000c390       ??_C@_1CA@HPALHDOD@?$AA_?$AAV?$AAC?$AAr?$AAt?$AAD?$AAb?$AAg?$AAR?$AAe?$AAp?$AAo?$AAr?$AAt?$AAW?$AA?$AA@ 100b8390     LIBCMTD:dbgrptt.obj
 0003:0000c3b8       ??_C@_1O@EJLDHPPL@?$AAs?$AAi?$AAg?$AAn?$AAa?$AAl?$AA?$AA@ 100b83b8     LIBCMTD:winsig.obj
 0003:0000c3c8       ??_C@_1GA@DBECNFG@?$AAf?$AA?3?$AA?2?$AAd?$AAd?$AA?2?$AAv?$AAc?$AAt?$AAo?$AAo?$AAl?$AAs?$AA?2?$AAc?$AAr?$AAt?$AA_?$AAb?$AAl?$AAd?$AA?2?$AAs?$AAe?$AAl?$AAf?$AA_?$AAx?$AA8?$AA6?$AA?2?$AAc@ 100b83c8     LIBCMTD:winsig.obj
 0003:0000c43c       ??_C@_1DO@MLNEDKGB@?$AA?$CI?$AA?$CC?$AAI?$AAn?$AAv?$AAa?$AAl?$AAi?$AAd?$AA?5?$AAs?$AAi?$AAg?$AAn?$AAa?$AAl?$AA?5?$AAo?$AAr?$AA?5?$AAe?$AAr?$AAr?$AAo?$AAr?$AA?$CC?$AA?0?$AA?5?$AA0?$AA?$CJ?$AA?$AA@ 100b843c     LIBCMTD:winsig.obj
 0003:0000c488       ??_C@_0DA@ELJOOIJF@f?3?2dd?2vctools?2crt_bld?2self_x86?2c@ 100b8488     LIBCMTD:winsig.obj
 0003:0000c4c4       ??_C@_1M@DMJEIKHL@?$AAr?$AAa?$AAi?$AAs?$AAe?$AA?$AA@ 100b84c4     LIBCMTD:winsig.obj
 0003:0000c4d4       ??_C@_0BI@DFKBFLJE@GetProcessWindowStation?$AA@ 100b84d4     LIBCMTD:crtmboxw.obj
 0003:0000c4f0       ??_C@_0BK@DEKFELLI@GetUserObjectInformationW?$AA@ 100b84f0     LIBCMTD:crtmboxw.obj
 0003:0000c510       ??_C@_0BD@HHGDFDBJ@GetLastActivePopup?$AA@ 100b8510     LIBCMTD:crtmboxw.obj
 0003:0000c528       ??_C@_0BA@HNOPNCHB@GetActiveWindow?$AA@ 100b8528     LIBCMTD:crtmboxw.obj
 0003:0000c53c       ??_C@_0M@DLDCCGNP@MessageBoxW?$AA@ 100b853c     LIBCMTD:crtmboxw.obj
 0003:0000c54c       ??_C@_1BG@GOEBHBDC@?$AAU?$AAS?$AAE?$AAR?$AA3?$AA2?$AA?4?$AAD?$AAL?$AAL?$AA?$AA@ 100b854c     LIBCMTD:crtmboxw.obj
 0003:0000c568       ??_C@_1BE@BMIJMLDD@?$AA_?$AAs?$AAw?$AAp?$AAr?$AAi?$AAn?$AAt?$AAf?$AA?$AA@ 100b8568     LIBCMTD:swprintf.obj
 0003:0000c580       ??_C@_1GE@DKGHLBLP@?$AAf?$AA?3?$AA?2?$AAd?$AAd?$AA?2?$AAv?$AAc?$AAt?$AAo?$AAo?$AAl?$AAs?$AA?2?$AAc?$AAr?$AAt?$AA_?$AAb?$AAl?$AAd?$AA?2?$AAs?$AAe?$AAl?$AAf?$AA_?$AAx?$AA8?$AA6?$AA?2?$AAc@ 100b8580     LIBCMTD:swprintf.obj
 0003:0000c5f8       ??_C@_1BC@KIONAFPO@?$AAw?$AAc?$AAs?$AAc?$AAp?$AAy?$AA_?$AAs?$AA?$AA@ 100b85f8     LIBCMTD:wcscpy_s.obj
 0003:0000c610       ??_C@_1FC@PFMLEHKI@?$AA?$CI?$AA?$CI?$AA_?$AAD?$AAs?$AAt?$AA?$CJ?$AA?$CJ?$AA?5?$AA?$CB?$AA?$DN?$AA?5?$AAN?$AAU?$AAL?$AAL?$AA?5?$AA?$CG?$AA?$CG?$AA?5?$AA?$CI?$AA?$CI?$AA_?$AAS?$AAi?$AAz?$AAe?$AAI?$AAn?$AAW?$AAo?$AAr@ 100b8610     LIBCMTD:wcscpy_s.obj
 0003:0000c678       ??_C@_1GA@GFFDGGFH@?$AAf?$AA?3?$AA?2?$AAd?$AAd?$AA?2?$AAv?$AAc?$AAt?$AAo?$AAo?$AAl?$AAs?$AA?2?$AAc?$AAr?$AAt?$AA_?$AAb?$AAl?$AAd?$AA?2?$AAs?$AAe?$AAl?$AAf?$AA_?$AAx?$AA8?$AA6?$AA?2?$AAc@ 100b8678     LIBCMTD:mbtowc.obj
 0003:0000c6f0       ??_C@_1NC@EINCOKCO@?$AA_?$AAl?$AAo?$AAc?$AA_?$AAu?$AAp?$AAd?$AAa?$AAt?$AAe?$AA?4?$AAG?$AAe?$AAt?$AAL?$AAo?$AAc?$AAa?$AAl?$AAe?$AAT?$AA?$CI?$AA?$CJ?$AA?9?$AA?$DO?$AAl?$AAo?$AAc?$AAi?$AAn?$AAf@ 100b86f0     LIBCMTD:mbtowc.obj
 0003:0000c7ec       ??_C@_1BA@LEBDGIHM@?$AA_?$AAi?$AAs?$AAa?$AAt?$AAt?$AAy?$AA?$AA@ 100b87ec     LIBCMTD:isatty.obj
 0003:0000c800       ??_C@_1GA@LPGDJDEN@?$AAf?$AA?3?$AA?2?$AAd?$AAd?$AA?2?$AAv?$AAc?$AAt?$AAo?$AAo?$AAl?$AAs?$AA?2?$AAc?$AAr?$AAt?$AA_?$AAb?$AAl?$AAd?$AA?2?$AAs?$AAe?$AAl?$AAf?$AA_?$AAx?$AA8?$AA6?$AA?2?$AAc@ 100b8800     LIBCMTD:isatty.obj
 0003:0000c874       ??_C@_0DA@HMCPFNKN@f?3?2dd?2vctools?2crt_bld?2self_x86?2c@ 100b8874     LIBCMTD:onexit.obj
 0003:0000c8b0       ??_C@_1BO@BKOMIGKJ@?$AAr?$AAu?$AAn?$AAt?$AAi?$AAm?$AAe?$AA?5?$AAe?$AAr?$AAr?$AAo?$AAr?$AA?5?$AA?$AA@ 100b88b0     LIBCMTD:crt0msg.obj
 0003:0000c8d4       ??_C@_15JNBOKNOG@?$AA?$AN?$AA?6?$AA?$AA@ 100b88d4     LIBCMTD:crt0msg.obj
 0003:0000c8dc       ??_C@_1BM@JBBEPPHI@?$AAT?$AAL?$AAO?$AAS?$AAS?$AA?5?$AAe?$AAr?$AAr?$AAo?$AAr?$AA?$AN?$AA?6?$AA?$AA@ 100b88dc     LIBCMTD:crt0msg.obj
 0003:0000c900       ??_C@_1BK@KMOMNAAI@?$AAS?$AAI?$AAN?$AAG?$AA?5?$AAe?$AAr?$AAr?$AAo?$AAr?$AA?$AN?$AA?6?$AA?$AA@ 100b8900     LIBCMTD:crt0msg.obj
 0003:0000c920       ??_C@_1BO@BFCDCGC@?$AAD?$AAO?$AAM?$AAA?$AAI?$AAN?$AA?5?$AAe?$AAr?$AAr?$AAo?$AAr?$AA?$AN?$AA?6?$AA?$AA@ 100b8920     LIBCMTD:crt0msg.obj
 0003:0000c948       ??_C@_1BOO@KGEDBGAJ@?$AAR?$AA6?$AA0?$AA3?$AA3?$AA?$AN?$AA?6?$AA?9?$AA?5?$AAA?$AAt?$AAt?$AAe?$AAm?$AAp?$AAt?$AA?5?$AAt?$AAo?$AA?5?$AAu?$AAs?$AAe?$AA?5?$AAM?$AAS?$AAI?$AAL?$AA?5?$AAc?$AAo?$AAd@ 100b8948     LIBCMTD:crt0msg.obj
 0003:0000cb98       ??_C@_1GG@GOPILAJP@?$AAR?$AA6?$AA0?$AA3?$AA2?$AA?$AN?$AA?6?$AA?9?$AA?5?$AAn?$AAo?$AAt?$AA?5?$AAe?$AAn?$AAo?$AAu?$AAg?$AAh?$AA?5?$AAs?$AAp?$AAa?$AAc?$AAe?$AA?5?$AAf?$AAo?$AAr?$AA?5?$AAl?$AAo@ 100b8b98     LIBCMTD:crt0msg.obj
 0003:0000cc18       ??_C@_1MG@ENCOOIDF@?$AAR?$AA6?$AA0?$AA3?$AA1?$AA?$AN?$AA?6?$AA?9?$AA?5?$AAA?$AAt?$AAt?$AAe?$AAm?$AAp?$AAt?$AA?5?$AAt?$AAo?$AA?5?$AAi?$AAn?$AAi?$AAt?$AAi?$AAa?$AAl?$AAi?$AAz?$AAe?$AA?5?$AAt@ 100b8c18     LIBCMTD:crt0msg.obj
 0003:0000cd08       ??_C@_1DO@BMFCDCD@?$AAR?$AA6?$AA0?$AA3?$AA0?$AA?$AN?$AA?6?$AA?9?$AA?5?$AAC?$AAR?$AAT?$AA?5?$AAn?$AAo?$AAt?$AA?5?$AAi?$AAn?$AAi?$AAt?$AAi?$AAa?$AAl?$AAi?$AAz?$AAe?$AAd?$AA?$AN?$AA?6?$AA?$AA@ 100b8d08     LIBCMTD:crt0msg.obj
 0003:0000cd58       ??_C@_1EK@HHFLMAOL@?$AAR?$AA6?$AA0?$AA2?$AA8?$AA?$AN?$AA?6?$AA?9?$AA?5?$AAu?$AAn?$AAa?$AAb?$AAl?$AAe?$AA?5?$AAt?$AAo?$AA?5?$AAi?$AAn?$AAi?$AAt?$AAi?$AAa?$AAl?$AAi?$AAz?$AAe?$AA?5?$AAh?$AAe@ 100b8d58     LIBCMTD:crt0msg.obj
 0003:0000cdb0       ??_C@_1GK@MFGOKLAG@?$AAR?$AA6?$AA0?$AA2?$AA7?$AA?$AN?$AA?6?$AA?9?$AA?5?$AAn?$AAo?$AAt?$AA?5?$AAe?$AAn?$AAo?$AAu?$AAg?$AAh?$AA?5?$AAs?$AAp?$AAa?$AAc?$AAe?$AA?5?$AAf?$AAo?$AAr?$AA?5?$AAl?$AAo@ 100b8db0     LIBCMTD:crt0msg.obj
 0003:0000ce30       ??_C@_1GK@MCAAGJMO@?$AAR?$AA6?$AA0?$AA2?$AA6?$AA?$AN?$AA?6?$AA?9?$AA?5?$AAn?$AAo?$AAt?$AA?5?$AAe?$AAn?$AAo?$AAu?$AAg?$AAh?$AA?5?$AAs?$AAp?$AAa?$AAc?$AAe?$AA?5?$AAf?$AAo?$AAr?$AA?5?$AAs?$AAt@ 100b8e30     LIBCMTD:crt0msg.obj
 0003:0000ceb0       ??_C@_1EM@MAADIHMB@?$AAR?$AA6?$AA0?$AA2?$AA5?$AA?$AN?$AA?6?$AA?9?$AA?5?$AAp?$AAu?$AAr?$AAe?$AA?5?$AAv?$AAi?$AAr?$AAt?$AAu?$AAa?$AAl?$AA?5?$AAf?$AAu?$AAn?$AAc?$AAt?$AAi?$AAo?$AAn?$AA?5?$AAc@ 100b8eb0     LIBCMTD:crt0msg.obj
 0003:0000cf10       ??_C@_1GK@FHCKBEFA@?$AAR?$AA6?$AA0?$AA2?$AA4?$AA?$AN?$AA?6?$AA?9?$AA?5?$AAn?$AAo?$AAt?$AA?5?$AAe?$AAn?$AAo?$AAu?$AAg?$AAh?$AA?5?$AAs?$AAp?$AAa?$AAc?$AAe?$AA?5?$AAf?$AAo?$AAr?$AA?5?$AA_?$AAo@ 100b8f10     LIBCMTD:crt0msg.obj
 0003:0000cf90       ??_C@_1FC@ECHBIFBC@?$AAR?$AA6?$AA0?$AA1?$AA9?$AA?$AN?$AA?6?$AA?9?$AA?5?$AAu?$AAn?$AAa?$AAb?$AAl?$AAe?$AA?5?$AAt?$AAo?$AA?5?$AAo?$AAp?$AAe?$AAn?$AA?5?$AAc?$AAo?$AAn?$AAs?$AAo?$AAl?$AAe?$AA?5@ 100b8f90     LIBCMTD:crt0msg.obj
 0003:0000cff8       ??_C@_1EC@JIBHAOPH@?$AAR?$AA6?$AA0?$AA1?$AA8?$AA?$AN?$AA?6?$AA?9?$AA?5?$AAu?$AAn?$AAe?$AAx?$AAp?$AAe?$AAc?$AAt?$AAe?$AAd?$AA?5?$AAh?$AAe?$AAa?$AAp?$AA?5?$AAe?$AAr?$AAr?$AAo?$AAr?$AA?$AN?$AA?6@ 100b8ff8     LIBCMTD:crt0msg.obj
 0003:0000d048       ??_C@_1FK@BEOGODMC@?$AAR?$AA6?$AA0?$AA1?$AA7?$AA?$AN?$AA?6?$AA?9?$AA?5?$AAu?$AAn?$AAe?$AAx?$AAp?$AAe?$AAc?$AAt?$AAe?$AAd?$AA?5?$AAm?$AAu?$AAl?$AAt?$AAi?$AAt?$AAh?$AAr?$AAe?$AAa?$AAd?$AA?5@ 100b9048     LIBCMTD:crt0msg.obj
 0003:0000d0b8       ??_C@_1FI@LOGNIKDM@?$AAR?$AA6?$AA0?$AA1?$AA6?$AA?$AN?$AA?6?$AA?9?$AA?5?$AAn?$AAo?$AAt?$AA?5?$AAe?$AAn?$AAo?$AAu?$AAg?$AAh?$AA?5?$AAs?$AAp?$AAa?$AAc?$AAe?$AA?5?$AAf?$AAo?$AAr?$AA?5?$AAt?$AAh@ 100b90b8     LIBCMTD:crt0msg.obj
 0003:0000d128       ??_C@_1EG@BEHAGFJD@?$AAR?$AA6?$AA0?$AA1?$AA0?$AA?$AN?$AA?6?$AA?9?$AA?5?$AAa?$AAb?$AAo?$AAr?$AAt?$AA?$CI?$AA?$CJ?$AA?5?$AAh?$AAa?$AAs?$AA?5?$AAb?$AAe?$AAe?$AAn?$AA?5?$AAc?$AAa?$AAl?$AAl?$AAe?$AAd@ 100b9128     LIBCMTD:crt0msg.obj
 0003:0000d180       ??_C@_1FI@HONFMGBI@?$AAR?$AA6?$AA0?$AA0?$AA9?$AA?$AN?$AA?6?$AA?9?$AA?5?$AAn?$AAo?$AAt?$AA?5?$AAe?$AAn?$AAo?$AAu?$AAg?$AAh?$AA?5?$AAs?$AAp?$AAa?$AAc?$AAe?$AA?5?$AAf?$AAo?$AAr?$AA?5?$AAe?$AAn@ 100b9180     LIBCMTD:crt0msg.obj
 0003:0000d1f0       ??_C@_1FE@LLNEDJMD@?$AAR?$AA6?$AA0?$AA0?$AA8?$AA?$AN?$AA?6?$AA?9?$AA?5?$AAn?$AAo?$AAt?$AA?5?$AAe?$AAn?$AAo?$AAu?$AAg?$AAh?$AA?5?$AAs?$AAp?$AAa?$AAc?$AAe?$AA?5?$AAf?$AAo?$AAr?$AA?5?$AAa?$AAr@ 100b91f0     LIBCMTD:crt0msg.obj
 0003:0000d258       ??_C@_1FK@PGACCAFB@?$AAR?$AA6?$AA0?$AA0?$AA2?$AA?$AN?$AA?6?$AA?9?$AA?5?$AAf?$AAl?$AAo?$AAa?$AAt?$AAi?$AAn?$AAg?$AA?5?$AAp?$AAo?$AAi?$AAn?$AAt?$AA?5?$AAs?$AAu?$AAp?$AAp?$AAo?$AAr?$AAt?$AA?5@ 100b9258     LIBCMTD:crt0msg.obj
 0003:0000d3a0       ??_C@_1EK@MBDPDCGA@?$AAM?$AAi?$AAc?$AAr?$AAo?$AAs?$AAo?$AAf?$AAt?$AA?5?$AAV?$AAi?$AAs?$AAu?$AAa?$AAl?$AA?5?$AAC?$AA?$CL?$AA?$CL?$AA?5?$AAR?$AAu?$AAn?$AAt?$AAi?$AAm?$AAe?$AA?5?$AAL?$AAi?$AAb@ 100b93a0     LIBCMTD:crt0msg.obj
 0003:0000d3f8       ??_C@_1IG@NMONDPP@?$AAw?$AAc?$AAs?$AAc?$AAa?$AAt?$AA_?$AAs?$AA?$CI?$AAo?$AAu?$AAt?$AAm?$AAs?$AAg?$AA?0?$AA?5?$AA?$CI?$AAs?$AAi?$AAz?$AAe?$AAo?$AAf?$AA?$CI?$AAo?$AAu?$AAt?$AAm?$AAs?$AAg?$AA?$CJ@ 100b93f8     LIBCMTD:crt0msg.obj
 0003:0000d498       ??_C@_1IA@DCJGKHFO@?$AAw?$AAc?$AAs?$AAc?$AAa?$AAt?$AA_?$AAs?$AA?$CI?$AAo?$AAu?$AAt?$AAm?$AAs?$AAg?$AA?0?$AA?5?$AA?$CI?$AAs?$AAi?$AAz?$AAe?$AAo?$AAf?$AA?$CI?$AAo?$AAu?$AAt?$AAm?$AAs?$AAg?$AA?$CJ@ 100b9498     LIBCMTD:crt0msg.obj
 0003:0000d538       ??_C@_1HI@FLHKGEBE@?$AAw?$AAc?$AAs?$AAn?$AAc?$AAp?$AAy?$AA_?$AAs?$AA?$CI?$AAp?$AAc?$AAh?$AA?0?$AA?5?$AAp?$AAr?$AAo?$AAg?$AAn?$AAa?$AAm?$AAe?$AA_?$AAs?$AAi?$AAz?$AAe?$AA?5?$AA?9?$AA?5?$AA?$CI@ 100b9538     LIBCMTD:crt0msg.obj
 0003:0000d5c8       ??_C@_1HK@FJJNAABO@?$AAw?$AAc?$AAs?$AAc?$AAp?$AAy?$AA_?$AAs?$AA?$CI?$AAp?$AAr?$AAo?$AAg?$AAn?$AAa?$AAm?$AAe?$AA?0?$AA?5?$AAp?$AAr?$AAo?$AAg?$AAn?$AAa?$AAm?$AAe?$AA_?$AAs?$AAi?$AAz?$AAe@ 100b95c8     LIBCMTD:crt0msg.obj
 0003:0000d65c       ??_C@_1DE@JNGNBFGO@?$AAR?$AAu?$AAn?$AAt?$AAi?$AAm?$AAe?$AA?5?$AAE?$AAr?$AAr?$AAo?$AAr?$AA?$CB?$AA?6?$AA?6?$AAP?$AAr?$AAo?$AAg?$AAr?$AAa?$AAm?$AA?3?$AA?5?$AA?$AA@ 100b965c     LIBCMTD:crt0msg.obj
 0003:0000d6a0       ??_C@_1KO@BKLCKNFL@?$AAw?$AAc?$AAs?$AAc?$AAp?$AAy?$AA_?$AAs?$AA?$CI?$AAo?$AAu?$AAt?$AAm?$AAs?$AAg?$AA?0?$AA?5?$AA?$CI?$AAs?$AAi?$AAz?$AAe?$AAo?$AAf?$AA?$CI?$AAo?$AAu?$AAt?$AAm?$AAs?$AAg?$AA?$CJ@ 100b96a0     LIBCMTD:crt0msg.obj
 0003:0000d770       ??_C@_1BI@EAHMBMEC@?$AA_?$AAN?$AAM?$AAS?$AAG?$AA_?$AAW?$AAR?$AAI?$AAT?$AAE?$AA?$AA@ 100b9770     LIBCMTD:crt0msg.obj
 0003:0000d790       ??_C@_1GC@HKOJBOFF@?$AAf?$AA?3?$AA?2?$AAd?$AAd?$AA?2?$AAv?$AAc?$AAt?$AAo?$AAo?$AAl?$AAs?$AA?2?$AAc?$AAr?$AAt?$AA_?$AAb?$AAl?$AAd?$AA?2?$AAs?$AAe?$AAl?$AAf?$AA_?$AAx?$AA8?$AA6?$AA?2?$AAc@ 100b9790     LIBCMTD:crt0msg.obj
 0003:0000d808       ??_C@_0BC@JEAENNKH@SystemFunction036?$AA@ 100b9808     LIBCMTD:rand_s.obj
 0003:0000d820       ??_C@_1GA@EBEDGGGB@?$AA?$CI?$AA?$CC?$AAr?$AAa?$AAn?$AAd?$AA_?$AAs?$AA?5?$AAi?$AAs?$AA?5?$AAn?$AAo?$AAt?$AA?5?$AAa?$AAv?$AAa?$AAi?$AAl?$AAa?$AAb?$AAl?$AAe?$AA?5?$AAo?$AAn?$AA?5?$AAt?$AAh?$AAi@ 100b9820     LIBCMTD:rand_s.obj
 0003:0000d894       ??_C@_1BK@GAEMIDIL@?$AAA?$AAD?$AAV?$AAA?$AAP?$AAI?$AA3?$AA2?$AA?4?$AAD?$AAL?$AAL?$AA?$AA@ 100b9894     LIBCMTD:rand_s.obj
 0003:0000d8b4       ??_C@_1O@IJGPPOGF@?$AAr?$AAa?$AAn?$AAd?$AA_?$AAs?$AA?$AA@ 100b98b4     LIBCMTD:rand_s.obj
 0003:0000d8c8       ??_C@_1GA@HBGBBKCD@?$AAf?$AA?3?$AA?2?$AAd?$AAd?$AA?2?$AAv?$AAc?$AAt?$AAo?$AAo?$AAl?$AAs?$AA?2?$AAc?$AAr?$AAt?$AA_?$AAb?$AAl?$AAd?$AA?2?$AAs?$AAe?$AAl?$AAf?$AA_?$AAx?$AA8?$AA6?$AA?2?$AAc@ 100b98c8     LIBCMTD:rand_s.obj
 0003:0000d93c       ??_C@_1CK@GFDNDKK@?$AA_?$AAR?$AAa?$AAn?$AAd?$AAo?$AAm?$AAV?$AAa?$AAl?$AAu?$AAe?$AA?5?$AA?$CB?$AA?$DN?$AA?5?$AAN?$AAU?$AAL?$AAL?$AA?$AA@ 100b993c     LIBCMTD:rand_s.obj
 0003:0000d970       ??_C@_1GO@NGIGJNHH@?$AAs?$AAt?$AAr?$AAn?$AAc?$AAp?$AAy?$AA_?$AAs?$AA?$CI?$AA?$CK?$AAs?$AAt?$AAr?$AAa?$AAd?$AAd?$AAr?$AAe?$AAs?$AAs?$AA?0?$AA?5?$AAo?$AAu?$AAt?$AAs?$AAi?$AAz?$AAe?$AA?0?$AA?5@ 100b9970     LIBCMTD:inithelp.obj
 0003:0000d9f4       ??_C@_1CA@KHHCPEI@?$AA_?$AA_?$AAg?$AAe?$AAt?$AAl?$AAo?$AAc?$AAa?$AAl?$AAe?$AAi?$AAn?$AAf?$AAo?$AA?$AA@ 100b99f4     LIBCMTD:inithelp.obj
 0003:0000da20       ??_C@_1GE@PLPIMDHG@?$AAf?$AA?3?$AA?2?$AAd?$AAd?$AA?2?$AAv?$AAc?$AAt?$AAo?$AAo?$AAl?$AAs?$AA?2?$AAc?$AAr?$AAt?$AA_?$AAb?$AAl?$AAd?$AA?2?$AAs?$AAe?$AAl?$AAf?$AA_?$AAx?$AA8?$AA6?$AA?2?$AAc@ 100b9a20     LIBCMTD:inithelp.obj
 0003:0000da98       ??_C@_0DC@CFDMMFIG@f?3?2dd?2vctools?2crt_bld?2self_x86?2c@ 100b9a98     LIBCMTD:inithelp.obj
 0003:0000dad8       ??_C@_1GG@CDHAPCGF@?$AAf?$AA?3?$AA?2?$AAd?$AAd?$AA?2?$AAv?$AAc?$AAt?$AAo?$AAo?$AAl?$AAs?$AA?2?$AAc?$AAr?$AAt?$AA_?$AAb?$AAl?$AAd?$AA?2?$AAs?$AAe?$AAl?$AAf?$AA_?$AAx?$AA8?$AA6?$AA?2?$AAc@ 100b9ad8     LIBCMTD:handler.obj
 0003:0000db54       ??_C@_1BC@JLLICHIC@?$AAp?$AAn?$AAh?$AA?5?$AA?$DN?$AA?$DN?$AA?5?$AA0?$AA?$AA@ 100b9b54     LIBCMTD:handler.obj
 0003:0000db78       ??_C@_1GA@INJGGEBC@?$AAf?$AA?3?$AA?2?$AAd?$AAd?$AA?2?$AAv?$AAc?$AAt?$AAo?$AAo?$AAl?$AAs?$AA?2?$AAc?$AAr?$AAt?$AA_?$AAb?$AAl?$AAd?$AA?2?$AAs?$AAe?$AAl?$AAf?$AA_?$AAx?$AA8?$AA6?$AA?2?$AAc@ 100b9b78     LIBCMTD:a_map.obj
 0003:0000dbf0       ??_C@_1FE@KNPCCODH@?$AA?$CI?$AA?$CC?$AAC?$AAo?$AAr?$AAr?$AAu?$AAp?$AAt?$AAe?$AAd?$AA?5?$AAp?$AAo?$AAi?$AAn?$AAt?$AAe?$AAr?$AA?5?$AAp?$AAa?$AAs?$AAs?$AAe?$AAd?$AA?5?$AAt?$AAo?$AA?5?$AA_?$AAf@ 100b9bf0     LIBCMTD:a_map.obj
 0003:0000dc58       ??_C@_1GE@GJCMHHMH@?$AAf?$AA?3?$AA?2?$AAd?$AAd?$AA?2?$AAv?$AAc?$AAt?$AAo?$AAo?$AAl?$AAs?$AA?2?$AAc?$AAr?$AAt?$AA_?$AAb?$AAl?$AAd?$AA?2?$AAs?$AAe?$AAl?$AAf?$AA_?$AAx?$AA8?$AA6?$AA?2?$AAc@ 100b9c58     LIBCMTD:inittime.obj
 0003:0000dcd0       ??_C@_1EE@FDHCFDHN@?$AAp?$AAl?$AAo?$AAc?$AAi?$AA?9?$AA?$DO?$AAl?$AAc?$AA_?$AAt?$AAi?$AAm?$AAe?$AA_?$AAc?$AAu?$AAr?$AAr?$AA?9?$AA?$DO?$AAr?$AAe?$AAf?$AAc?$AAo?$AAu?$AAn?$AAt?$AA?5?$AA?$DO?$AA?5@ 100b9cd0     LIBCMTD:inittime.obj
 0003:0000dd24       ??_C@_0DC@KICHHNFK@f?3?2dd?2vctools?2crt_bld?2self_x86?2c@ 100b9d24     LIBCMTD:inittime.obj
 0003:0000dd60       ??_C@_1GC@EDJOCBCL@?$AAf?$AA?3?$AA?2?$AAd?$AAd?$AA?2?$AAv?$AAc?$AAt?$AAo?$AAo?$AAl?$AAs?$AA?2?$AAc?$AAr?$AAt?$AA_?$AAb?$AAl?$AAd?$AA?2?$AAs?$AAe?$AAl?$AAf?$AA_?$AAx?$AA8?$AA6?$AA?2?$AAc@ 100b9d60     LIBCMTD:initnum.obj
 0003:0000ddd8       ??_C@_1DM@IFKAINNE@?$AAp?$AAl?$AAo?$AAc?$AAi?$AA?9?$AA?$DO?$AAl?$AAc?$AAo?$AAn?$AAv?$AA_?$AAn?$AAu?$AAm?$AA_?$AAr?$AAe?$AAf?$AAc?$AAo?$AAu?$AAn?$AAt?$AA?5?$AA?$DO?$AA?5?$AA0?$AA?$AA@ 100b9dd8     LIBCMTD:initnum.obj
 0003:0000de20       ??_C@_0DB@KKFMDHFI@f?3?2dd?2vctools?2crt_bld?2self_x86?2c@ 100b9e20     LIBCMTD:initnum.obj
 0003:0000de60       ??_C@_1GC@IKADOFBJ@?$AAf?$AA?3?$AA?2?$AAd?$AAd?$AA?2?$AAv?$AAc?$AAt?$AAo?$AAo?$AAl?$AAs?$AA?2?$AAc?$AAr?$AAt?$AA_?$AAb?$AAl?$AAd?$AA?2?$AAs?$AAe?$AAl?$AAf?$AA_?$AAx?$AA8?$AA6?$AA?2?$AAc@ 100b9e60     LIBCMTD:initmon.obj
 0003:0000ded8       ??_C@_1DM@GKAPAMDO@?$AAp?$AAl?$AAo?$AAc?$AAi?$AA?9?$AA?$DO?$AAl?$AAc?$AAo?$AAn?$AAv?$AA_?$AAm?$AAo?$AAn?$AA_?$AAr?$AAe?$AAf?$AAc?$AAo?$AAu?$AAn?$AAt?$AA?5?$AA?$DO?$AA?5?$AA0?$AA?$AA@ 100b9ed8     LIBCMTD:initmon.obj
 0003:0000df20       ??_C@_0DB@BECNGFDL@f?3?2dd?2vctools?2crt_bld?2self_x86?2c@ 100b9f20     LIBCMTD:initmon.obj
 0003:0000df60       ___newctype                100b9f60     LIBCMTD:ctype.obj
 0003:0000e260       __wctype                   100ba260     LIBCMTD:ctype.obj
 0003:0000e468       ___newclmap                100ba468     LIBCMTD:ctype.obj
 0003:0000e5e8       ___newcumap                100ba5e8     LIBCMTD:ctype.obj
 0003:0000e904       ??_C@_03KHICJKCI@?4?4?4?$AA@ 100ba904     LIBCMTD:dbgrpt.obj
 0003:0000e908       ??_C@_0BB@NAGLCMLI@Assertion?5Failed?$AA@ 100ba908     LIBCMTD:dbgrpt.obj
 0003:0000e91c       ??_C@_05NAOIJFC@Error?$AA@ 100ba91c     LIBCMTD:dbgrpt.obj
 0003:0000e924       ??_C@_07KGMMFLDN@Warning?$AA@ 100ba924     LIBCMTD:dbgrpt.obj
 0003:0000e940       ??_C@_1CG@GNMJDMIO@?$AA_?$AAC?$AAr?$AAt?$AAS?$AAe?$AAt?$AAR?$AAe?$AAp?$AAo?$AAr?$AAt?$AAH?$AAo?$AAo?$AAk?$AA2?$AA?$AA@ 100ba940     LIBCMTD:dbgrpt.obj
 0003:0000e970       ??_C@_0CD@EBCGLDDL@Microsoft?5Visual?5C?$CL?$CL?5Debug?5Libra@ 100ba970     LIBCMTD:dbgrpt.obj
 0003:0000e9a0       ??_C@_0FF@CCONDJCB@Debug?5?$CFs?$CB?6?6Program?3?5?$CFs?$CFs?$CFs?$CFs?$CFs?$CFs@ 100ba9a0     LIBCMTD:dbgrpt.obj
 0003:0000ea08       ??_C@_09OFBFHMBK@?6Module?3?5?$AA@ 100baa08     LIBCMTD:dbgrpt.obj
 0003:0000ea14       ??_C@_07OPHPPLBG@?6File?3?5?$AA@ 100baa14     LIBCMTD:dbgrpt.obj
 0003:0000ea20       ??_C@_07DBMPPHDI@?6Line?3?5?$AA@ 100baa20     LIBCMTD:dbgrpt.obj
 0003:0000ea2c       ??_C@_02PHMGELLB@?6?6?$AA@ 100baa2c     LIBCMTD:dbgrpt.obj
 0003:0000ea30       ??_C@_0N@MEECIJGN@Expression?3?5?$AA@ 100baa30     LIBCMTD:dbgrpt.obj
 0003:0000ea40       ??_C@_0HD@GNBNFCCL@?6?6For?5information?5on?5how?5your?5pr@ 100baa40     LIBCMTD:dbgrpt.obj
 0003:0000eacc       ??_C@_0BH@DNAGHKFM@?$DMprogram?5name?5unknown?$DO?$AA@ 100baacc     LIBCMTD:dbgrpt.obj
 0003:0000eae8       ??_C@_1GG@DLDHOIGE@?$AAs?$AAt?$AAr?$AAc?$AAp?$AAy?$AA_?$AAs?$AA?$CI?$AAs?$AAz?$AAE?$AAx?$AAe?$AAN?$AAa?$AAm?$AAe?$AA?0?$AA?5?$AA2?$AA6?$AA0?$AA?0?$AA?5?$AA?$CC?$AA?$DM?$AAp?$AAr?$AAo?$AAg?$AAr@ 100baae8     LIBCMTD:dbgrpt.obj
 0003:0000eb64       ??_C@_1CI@IDOKFLAJ@?$AA_?$AA_?$AAc?$AAr?$AAt?$AAM?$AAe?$AAs?$AAs?$AAa?$AAg?$AAe?$AAW?$AAi?$AAn?$AAd?$AAo?$AAw?$AAA?$AA?$AA@ 100bab64     LIBCMTD:dbgrpt.obj
 0003:0000eb94       ??_C@_1BK@JMCGJOCC@?$AA_?$AAe?$AAx?$AAp?$AAa?$AAn?$AAd?$AA_?$AAb?$AAa?$AAs?$AAe?$AA?$AA@ 100bab94     LIBCMTD:expand.obj
 0003:0000ebb8       ??_C@_1GA@EBHFLDNH@?$AAf?$AA?3?$AA?2?$AAd?$AAd?$AA?2?$AAv?$AAc?$AAt?$AAo?$AAo?$AAl?$AAs?$AA?2?$AAc?$AAr?$AAt?$AA_?$AAb?$AAl?$AAd?$AA?2?$AAs?$AAe?$AAl?$AAf?$AA_?$AAx?$AA8?$AA6?$AA?2?$AAc@ 100babb8     LIBCMTD:expand.obj
 0003:0000ec2c       ??_C@_1BO@KFIJIAEA@?$AAp?$AAB?$AAl?$AAo?$AAc?$AAk?$AA?5?$AA?$CB?$AA?$DN?$AA?5?$AAN?$AAU?$AAL?$AAL?$AA?$AA@ 100bac2c     LIBCMTD:expand.obj
 0003:0000ec50       ??_C@_1GC@CHGJNMHG@?$AAf?$AA?3?$AA?2?$AAd?$AAd?$AA?2?$AAv?$AAc?$AAt?$AAo?$AAo?$AAl?$AAs?$AA?2?$AAc?$AAr?$AAt?$AA_?$AAb?$AAl?$AAd?$AA?2?$AAs?$AAe?$AAl?$AAf?$AA_?$AAx?$AA8?$AA6?$AA?2?$AAc@ 100bac50     LIBCMTD:isctype.obj
 0003:0000ecc8       ??_C@_1DC@BPLPALML@?$AA?$CI?$AAu?$AAn?$AAs?$AAi?$AAg?$AAn?$AAe?$AAd?$AA?$CJ?$AA?$CI?$AAc?$AA?5?$AA?$CL?$AA?5?$AA1?$AA?$CJ?$AA?5?$AA?$DM?$AA?$DN?$AA?5?$AA2?$AA5?$AA6?$AA?$AA@ 100bacc8     LIBCMTD:isctype.obj
 0003:0000ed04       ??_C@_0DB@JEHOCBEJ@f?3?2dd?2vctools?2crt_bld?2self_x86?2c@ 100bad04     LIBCMTD:_getbuf.obj
 0003:0000ed40       ??_C@_1GC@DKMGNNCC@?$AAf?$AA?3?$AA?2?$AAd?$AAd?$AA?2?$AAv?$AAc?$AAt?$AAo?$AAo?$AAl?$AAs?$AA?2?$AAc?$AAr?$AAt?$AA_?$AAb?$AAl?$AAd?$AA?2?$AAs?$AAe?$AAl?$AAf?$AA_?$AAx?$AA8?$AA6?$AA?2?$AAc@ 100bad40     LIBCMTD:_getbuf.obj
 0003:0000edb8       ??_C@_1O@GKDHFACN@?$AAp?$AAr?$AAi?$AAn?$AAt?$AAf?$AA?$AA@ 100badb8     LIBCMTD:printf.obj
 0003:0000edc8       ??_C@_1GA@LHEGHOAF@?$AAf?$AA?3?$AA?2?$AAd?$AAd?$AA?2?$AAv?$AAc?$AAt?$AAo?$AAo?$AAl?$AAs?$AA?2?$AAc?$AAr?$AAt?$AA_?$AAb?$AAl?$AAd?$AA?2?$AAs?$AAe?$AAl?$AAf?$AA_?$AAx?$AA8?$AA6?$AA?2?$AAc@ 100badc8     LIBCMTD:printf.obj
 0003:0000ee3c       ??_C@_1CA@CBMNPEO@?$AAs?$AAi?$AAz?$AAe?$AAI?$AAn?$AAB?$AAy?$AAt?$AAe?$AAs?$AA?5?$AA?$DO?$AA?5?$AA0?$AA?$AA@ 100bae3c     LIBCMTD:wctomb.obj
 0003:0000ee64       ??_C@_1BI@IEADNOHF@?$AA_?$AAw?$AAc?$AAt?$AAo?$AAm?$AAb?$AA_?$AAs?$AA_?$AAl?$AA?$AA@ 100bae64     LIBCMTD:wctomb.obj
 0003:0000ee80       ??_C@_1GA@LDLHPOO@?$AAf?$AA?3?$AA?2?$AAd?$AAd?$AA?2?$AAv?$AAc?$AAt?$AAo?$AAo?$AAl?$AAs?$AA?2?$AAc?$AAr?$AAt?$AA_?$AAb?$AAl?$AAd?$AA?2?$AAs?$AAe?$AAl?$AAf?$AA_?$AAx?$AA8?$AA6?$AA?2?$AAc@ 100bae80     LIBCMTD:wctomb.obj
 0003:0000eef4       ??_C@_1CO@HFMIILNF@?$AAs?$AAi?$AAz?$AAe?$AAI?$AAn?$AAB?$AAy?$AAt?$AAe?$AAs?$AA?5?$AA?$DM?$AA?$DN?$AA?5?$AAI?$AAN?$AAT?$AA_?$AAM?$AAA?$AAX?$AA?$AA@ 100baef4     LIBCMTD:wctomb.obj
 0003:0000ef30       ??_C@_1FK@BCPANIEK@?$AA?$CI?$AA?$CC?$AAM?$AAi?$AAs?$AAs?$AAi?$AAn?$AAg?$AA?5?$AAp?$AAo?$AAs?$AAi?$AAt?$AAi?$AAo?$AAn?$AA?5?$AAi?$AAn?$AA?5?$AAt?$AAh?$AAe?$AA?5?$AAf?$AAo?$AAr?$AAm?$AAa?$AAt@ 100baf30     LIBCMTD:outputp.obj
 0003:0000efa0       ??_C@_1FK@LNCFKALM@?$AA?$CI?$AA?$CI?$AAs?$AAt?$AAa?$AAt?$AAe?$AA?5?$AA?$DN?$AA?$DN?$AA?5?$AAS?$AAT?$AA_?$AAN?$AAO?$AAR?$AAM?$AAA?$AAL?$AA?$CJ?$AA?5?$AA?$HM?$AA?$HM?$AA?5?$AA?$CI?$AAs?$AAt?$AAa?$AAt?$AAe?$AA?5@ 100bafa0     LIBCMTD:outputp.obj
 0003:0000f010       ??_C@_1JC@OACKELNN@?$AA_?$AAt?$AAv?$AAa?$AAl?$AAi?$AAd?$AAa?$AAt?$AAe?$AA_?$AAp?$AAa?$AAr?$AAa?$AAm?$AA_?$AAr?$AAe?$AAu?$AAs?$AAe?$AA?$CI?$AA?$CG?$AAp?$AAo?$AAs?$AA_?$AAv?$AAa?$AAl?$AAu@ 100bb010     LIBCMTD:outputp.obj
 0003:0000f0c0       ??_C@_1IK@NBGDDCBN@?$AA_?$AAt?$AAv?$AAa?$AAl?$AAi?$AAd?$AAa?$AAt?$AAe?$AA_?$AAp?$AAa?$AAr?$AAa?$AAm?$AA_?$AAr?$AAe?$AAu?$AAs?$AAe?$AA?$CI?$AA?$CG?$AAp?$AAo?$AAs?$AA_?$AAv?$AAa?$AAl?$AAu@ 100bb0c0     LIBCMTD:outputp.obj
 0003:0000f168       ??_C@_1DG@GOHGNKHE@?$AAp?$AAa?$AAs?$AAs?$AA?5?$AA?$DN?$AA?$DN?$AA?5?$AAF?$AAO?$AAR?$AAM?$AAA?$AAT?$AA_?$AAO?$AAU?$AAT?$AAP?$AAU?$AAT?$AA_?$AAP?$AAA?$AAS?$AAS?$AA?$AA@ 100bb168     LIBCMTD:outputp.obj
 0003:0000f1a8       ??_C@_1IM@DNGHAPLB@?$AA_?$AAt?$AAv?$AAa?$AAl?$AAi?$AAd?$AAa?$AAt?$AAe?$AA_?$AAp?$AAa?$AAr?$AAa?$AAm?$AA_?$AAr?$AAe?$AAu?$AAs?$AAe?$AA?$CI?$AA?$CG?$AAp?$AAo?$AAs?$AA_?$AAv?$AAa?$AAl?$AAu@ 100bb1a8     LIBCMTD:outputp.obj
 0003:0000f250       ??_C@_1IG@HJIMKDHC@?$AA_?$AAt?$AAv?$AAa?$AAl?$AAi?$AAd?$AAa?$AAt?$AAe?$AA_?$AAp?$AAa?$AAr?$AAa?$AAm?$AA_?$AAr?$AAe?$AAu?$AAs?$AAe?$AA?$CI?$AA?$CG?$AAp?$AAo?$AAs?$AA_?$AAv?$AAa?$AAl?$AAu@ 100bb250     LIBCMTD:outputp.obj
 0003:0000f2f0       ??_C@_1IG@FDCPLALG@?$AA_?$AAt?$AAv?$AAa?$AAl?$AAi?$AAd?$AAa?$AAt?$AAe?$AA_?$AAp?$AAa?$AAr?$AAa?$AAm?$AA_?$AAr?$AAe?$AAu?$AAs?$AAe?$AA?$CI?$AA?$CG?$AAp?$AAo?$AAs?$AA_?$AAv?$AAa?$AAl?$AAu@ 100bb2f0     LIBCMTD:outputp.obj
 0003:0000f390       ??_C@_1IK@MHEDJAMK@?$AA_?$AAt?$AAv?$AAa?$AAl?$AAi?$AAd?$AAa?$AAt?$AAe?$AA_?$AAp?$AAa?$AAr?$AAa?$AAm?$AA_?$AAr?$AAe?$AAu?$AAs?$AAe?$AA?$CI?$AA?$CG?$AAp?$AAo?$AAs?$AA_?$AAv?$AAa?$AAl?$AAu@ 100bb390     LIBCMTD:outputp.obj
 0003:0000f438       ??_C@_1EM@BNPHBBIA@?$AA?$CI?$AA?$CI?$AAt?$AAy?$AAp?$AAe?$AA_?$AAp?$AAo?$AAs?$AA?$DO?$AA?$DN?$AA0?$AA?$CJ?$AA?5?$AA?$CG?$AA?$CG?$AA?5?$AA?$CI?$AAt?$AAy?$AAp?$AAe?$AA_?$AAp?$AAo?$AAs?$AA?$DM?$AA_?$AAA?$AAR?$AAG@ 100bb438     LIBCMTD:outputp.obj
 0003:0000f498       ??_C@_1IK@EIEPDKHJ@?$AA_?$AAt?$AAv?$AAa?$AAl?$AAi?$AAd?$AAa?$AAt?$AAe?$AA_?$AAp?$AAa?$AAr?$AAa?$AAm?$AA_?$AAr?$AAe?$AAu?$AAs?$AAe?$AA?$CI?$AA?$CG?$AAp?$AAo?$AAs?$AA_?$AAv?$AAa?$AAl?$AAu@ 100bb498     LIBCMTD:outputp.obj
 0003:0000f540       ??_C@_1JG@JBJBOCFB@?$AA?$CI?$AA?$CI?$AAp?$AAr?$AAe?$AAc?$AAi?$AAs?$AA_?$AAp?$AAo?$AAs?$AA?5?$AA?$DO?$AA?$DN?$AA?5?$AA0?$AA?$CJ?$AA?5?$AA?$CG?$AA?$CG?$AA?5?$AA?$CI?$AA?$CK?$AAe?$AAn?$AAd?$AA_?$AAp?$AAo?$AAs?$AA?5@ 100bb540     LIBCMTD:outputp.obj
 0003:0000f5f8       ??_C@_1II@PIPIMLPF@?$AA_?$AAt?$AAv?$AAa?$AAl?$AAi?$AAd?$AAa?$AAt?$AAe?$AA_?$AAp?$AAa?$AAr?$AAa?$AAm?$AA_?$AAr?$AAe?$AAu?$AAs?$AAe?$AA?$CI?$AA?$CG?$AAp?$AAo?$AAs?$AA_?$AAv?$AAa?$AAl?$AAu@ 100bb5f8     LIBCMTD:outputp.obj
 0003:0000f6a0       ??_C@_1JE@NMBHOLFI@?$AA?$CI?$AA?$CI?$AAw?$AAi?$AAd?$AAt?$AAh?$AA_?$AAp?$AAo?$AAs?$AA?5?$AA?$DO?$AA?$DN?$AA?5?$AA0?$AA?$CJ?$AA?5?$AA?$CG?$AA?$CG?$AA?5?$AA?$CI?$AA?$CK?$AAe?$AAn?$AAd?$AA_?$AAp?$AAo?$AAs?$AA?5?$AA?$DN@ 100bb6a0     LIBCMTD:outputp.obj
 0003:0000f758       ??_C@_1EE@DMAIGNBG@?$AA?$CI?$AA?$CC?$AAI?$AAn?$AAc?$AAo?$AAr?$AAr?$AAe?$AAc?$AAt?$AA?5?$AAf?$AAo?$AAr?$AAm?$AAa?$AAt?$AA?5?$AAs?$AAp?$AAe?$AAc?$AAi?$AAf?$AAi?$AAe?$AAr?$AA?$CC?$AA?0?$AA?5?$AA0@ 100bb758     LIBCMTD:outputp.obj
 0003:0000f7b0       ??_C@_1JC@PFJNKEIO@?$AA?$CI?$AA?$CI?$AAt?$AAy?$AAp?$AAe?$AA_?$AAp?$AAo?$AAs?$AA?5?$AA?$DO?$AA?$DN?$AA?5?$AA0?$AA?$CJ?$AA?5?$AA?$CG?$AA?$CG?$AA?5?$AA?$CI?$AA?$CK?$AAe?$AAn?$AAd?$AA_?$AAp?$AAo?$AAs?$AA?5?$AA?$DN?$AA?$DN@ 100bb7b0     LIBCMTD:outputp.obj
 0003:0000f860       ??_C@_1BI@KANOLAMF@?$AA_?$AAo?$AAu?$AAt?$AAp?$AAu?$AAt?$AA_?$AAp?$AA_?$AAl?$AA?$AA@ 100bb860     LIBCMTD:outputp.obj
 0003:0000f880       ___lookuptable_s           100bb880     LIBCMTD:outputs.obj
 0003:0000f8ec       ??_C@_1BI@COFBLHCG@?$AA_?$AAo?$AAu?$AAt?$AAp?$AAu?$AAt?$AA_?$AAs?$AA_?$AAl?$AA?$AA@ 100bb8ec     LIBCMTD:outputs.obj
 0003:0000f908       ??_C@_1M@MFLJCMFJ@?$AA_?$AAo?$AAp?$AAe?$AAn?$AA?$AA@ 100bb908     LIBCMTD:open.obj
 0003:0000f918       ??_C@_1BM@IOBAMMHO@?$AA_?$AAs?$AAo?$AAp?$AAe?$AAn?$AA_?$AAh?$AAe?$AAl?$AAp?$AAe?$AAr?$AA?$AA@ 100bb918     LIBCMTD:open.obj
 0003:0000f93c       ??_C@_1BG@GBJNMPFA@?$AAs?$AA2?$AA?5?$AA?$CB?$AA?$DN?$AA?5?$AAN?$AAU?$AAL?$AAL?$AA?$AA@ 100bb93c     LIBCMTD:mbsnbicm.obj
 0003:0000f958       ??_C@_1BK@GEJONGBG@?$AA_?$AAm?$AAb?$AAs?$AAn?$AAb?$AAi?$AAc?$AAm?$AAp?$AA_?$AAl?$AA?$AA@ 100bb958     LIBCMTD:mbsnbicm.obj
 0003:0000f978       ??_C@_1GE@JLFFJINF@?$AAf?$AA?3?$AA?2?$AAd?$AAd?$AA?2?$AAv?$AAc?$AAt?$AAo?$AAo?$AAl?$AAs?$AA?2?$AAc?$AAr?$AAt?$AA_?$AAb?$AAl?$AAd?$AA?2?$AAs?$AAe?$AAl?$AAf?$AA_?$AAx?$AA8?$AA6?$AA?2?$AAc@ 100bb978     LIBCMTD:mbsnbicm.obj
 0003:0000f9f0       ??_C@_1BG@MODEICJK@?$AAs?$AA1?$AA?5?$AA?$CB?$AA?$DN?$AA?5?$AAN?$AAU?$AAL?$AAL?$AA?$AA@ 100bb9f0     LIBCMTD:mbsnbicm.obj
 0003:0000fa0c       ??_C@_1BI@LPHOHGHI@?$AA_?$AAm?$AAb?$AAs?$AAn?$AAb?$AAc?$AAm?$AAp?$AA_?$AAl?$AA?$AA@ 100bba0c     LIBCMTD:mbsnbcmp.obj
 0003:0000fa28       ??_C@_1GE@IIBFGEPN@?$AAf?$AA?3?$AA?2?$AAd?$AAd?$AA?2?$AAv?$AAc?$AAt?$AAo?$AAo?$AAl?$AAs?$AA?2?$AAc?$AAr?$AAt?$AA_?$AAb?$AAl?$AAd?$AA?2?$AAs?$AAe?$AAl?$AAf?$AA_?$AAx?$AA8?$AA6?$AA?2?$AAc@ 100bba28     LIBCMTD:mbsnbcmp.obj
 0003:0000faa0       ??_C@_1BA@FLNMBBIM@?$AA_?$AAc?$AAo?$AAm?$AAm?$AAi?$AAt?$AA?$AA@ 100bbaa0     LIBCMTD:commit.obj
 0003:0000fab8       ??_C@_1GA@BOPCOCFN@?$AAf?$AA?3?$AA?2?$AAd?$AAd?$AA?2?$AAv?$AAc?$AAt?$AAo?$AAo?$AAl?$AAs?$AA?2?$AAc?$AAr?$AAt?$AA_?$AAb?$AAl?$AAd?$AA?2?$AAs?$AAe?$AAl?$AAf?$AA_?$AAx?$AA8?$AA6?$AA?2?$AAc@ 100bbab8     LIBCMTD:commit.obj
 0003:0000fb2c       ??_C@_1CG@JEHFHLNG@?$AA_?$AAm?$AAb?$AAs?$AAt?$AAo?$AAw?$AAc?$AAs?$AA_?$AAl?$AA_?$AAh?$AAe?$AAl?$AAp?$AAe?$AAr?$AA?$AA@ 100bbb2c     LIBCMTD:mbstowcs.obj
 0003:0000fb60       ??_C@_1GE@LCCDHBMH@?$AAf?$AA?3?$AA?2?$AAd?$AAd?$AA?2?$AAv?$AAc?$AAt?$AAo?$AAo?$AAl?$AAs?$AA?2?$AAc?$AAr?$AAt?$AA_?$AAb?$AAl?$AAd?$AA?2?$AAs?$AAe?$AAl?$AAf?$AA_?$AAx?$AA8?$AA6?$AA?2?$AAc@ 100bbb60     LIBCMTD:mbstowcs.obj
 0003:0000fbd8       ??_C@_1BE@EEKACIGI@?$AAs?$AA?5?$AA?$CB?$AA?$DN?$AA?5?$AAN?$AAU?$AAL?$AAL?$AA?$AA@ 100bbbd8     LIBCMTD:mbstowcs.obj
 0003:0000fbf0       ??_C@_1CO@JNPEPJAL@?$AAr?$AAe?$AAt?$AAs?$AAi?$AAz?$AAe?$AA?5?$AA?$DM?$AA?$DN?$AA?5?$AAs?$AAi?$AAz?$AAe?$AAI?$AAn?$AAW?$AAo?$AAr?$AAd?$AAs?$AA?$AA@ 100bbbf0     LIBCMTD:mbstowcs.obj
 0003:0000fc28       ??_C@_1BM@PHENIGHD@?$AA_?$AAm?$AAb?$AAs?$AAt?$AAo?$AAw?$AAc?$AAs?$AA_?$AAs?$AA_?$AAl?$AA?$AA@ 100bbc28     LIBCMTD:mbstowcs.obj
 0003:0000fc50       ??_C@_1JA@JKDFMOPO@?$AA?$CI?$AAp?$AAw?$AAc?$AAs?$AA?5?$AA?$DN?$AA?$DN?$AA?5?$AAN?$AAU?$AAL?$AAL?$AA?5?$AA?$CG?$AA?$CG?$AA?5?$AAs?$AAi?$AAz?$AAe?$AAI?$AAn?$AAW?$AAo?$AAr?$AAd?$AAs?$AA?5?$AA?$DN?$AA?$DN?$AA?5@ 100bbc50     LIBCMTD:mbstowcs.obj
 0003:0000fd00       ??_C@_1FA@MJKDNFFB@?$AA?$CI?$AAL?$AA?$CC?$AAS?$AAt?$AAr?$AAi?$AAn?$AAg?$AA?5?$AAi?$AAs?$AA?5?$AAn?$AAo?$AAt?$AA?5?$AAn?$AAu?$AAl?$AAl?$AA?5?$AAt?$AAe?$AAr?$AAm?$AAi?$AAn?$AAa?$AAt?$AAe?$AAd@ 100bbd00     LIBCMTD:strcat_s.obj
 0003:0000fd60       ??_C@_1DM@FHLMIEG@?$AAS?$AAt?$AAr?$AAi?$AAn?$AAg?$AA?5?$AAi?$AAs?$AA?5?$AAn?$AAo?$AAt?$AA?5?$AAn?$AAu?$AAl?$AAl?$AA?5?$AAt?$AAe?$AAr?$AAm?$AAi?$AAn?$AAa?$AAt?$AAe?$AAd?$AA?$AA@ 100bbd60     LIBCMTD:strcat_s.obj
 0003:0000fda8       ??_C@_1BC@HGPNAKGC@?$AAs?$AAt?$AAr?$AAc?$AAa?$AAt?$AA_?$AAs?$AA?$AA@ 100bbda8     LIBCMTD:strcat_s.obj
 0003:0000fdc0       ??_C@_1GI@NOKGIAGA@?$AAf?$AA?3?$AA?2?$AAd?$AAd?$AA?2?$AAv?$AAc?$AAt?$AAo?$AAo?$AAl?$AAs?$AA?2?$AAc?$AAr?$AAt?$AA_?$AAb?$AAl?$AAd?$AA?2?$AAs?$AAe?$AAl?$AAf?$AA_?$AAx?$AA8?$AA6?$AA?2?$AAc@ 100bbdc0     LIBCMTD:strcat_s.obj
 0003:0000fe3c       ??_C@_1CM@HABGDNLJ@?$AAl?$AAe?$AAn?$AAg?$AAt?$AAh?$AA?5?$AA?$DM?$AA?5?$AAs?$AAi?$AAz?$AAe?$AAI?$AAn?$AAT?$AAC?$AAh?$AAa?$AAr?$AAs?$AA?$AA@ 100bbe3c     LIBCMTD:xtoas.obj
 0003:0000fe70       ??_C@_1DE@PCJGDBBD@?$AA2?$AA?5?$AA?$DM?$AA?$DN?$AA?5?$AAr?$AAa?$AAd?$AAi?$AAx?$AA?5?$AA?$CG?$AA?$CG?$AA?5?$AAr?$AAa?$AAd?$AAi?$AAx?$AA?5?$AA?$DM?$AA?$DN?$AA?5?$AA3?$AA6?$AA?$AA@ 100bbe70     LIBCMTD:xtoas.obj
 0003:0000feb0       ??_C@_1FA@MKGGAGEI@?$AAs?$AAi?$AAz?$AAe?$AAI?$AAn?$AAT?$AAC?$AAh?$AAa?$AAr?$AAs?$AA?5?$AA?$DO?$AA?5?$AA?$CI?$AAs?$AAi?$AAz?$AAe?$AA_?$AAt?$AA?$CJ?$AA?$CI?$AAi?$AAs?$AA_?$AAn?$AAe?$AAg?$AA?5?$AA?$DP@ 100bbeb0     LIBCMTD:xtoas.obj
 0003:0000ff10       ??_C@_1O@GIMBNLEI@?$AAx?$AAt?$AAo?$AAa?$AA_?$AAs?$AA?$AA@ 100bbf10     LIBCMTD:xtoas.obj
 0003:0000ff20       ??_C@_1FM@MFCBFCGB@?$AAf?$AA?3?$AA?2?$AAd?$AAd?$AA?2?$AAv?$AAc?$AAt?$AAo?$AAo?$AAl?$AAs?$AA?2?$AAc?$AAr?$AAt?$AA_?$AAb?$AAl?$AAd?$AA?2?$AAs?$AAe?$AAl?$AAf?$AA_?$AAx?$AA8?$AA6?$AA?2?$AAc@ 100bbf20     LIBCMTD:xtoas.obj
 0003:0000ff90       ??_C@_1BI@ICGGMGLK@?$AAb?$AAu?$AAf?$AA?5?$AA?$CB?$AA?$DN?$AA?5?$AAN?$AAU?$AAL?$AAL?$AA?$AA@ 100bbf90     LIBCMTD:xtoas.obj
 0003:0000ffac       ??_C@_1BC@MJJNBNFN@?$AAx?$AA6?$AA4?$AAt?$AAo?$AAa?$AA_?$AAs?$AA?$AA@ 100bbfac     LIBCMTD:xtoas.obj
 0003:0000ffc4       ??_C@_1BC@PLIEPKPJ@?$AAw?$AAc?$AAs?$AAc?$AAa?$AAt?$AA_?$AAs?$AA?$AA@ 100bbfc4     LIBCMTD:wcscat_s.obj
 0003:0000ffdc       ??_C@_1CE@IGKFIJFD@?$AA_?$AAv?$AAs?$AAw?$AAp?$AAr?$AAi?$AAn?$AAt?$AAf?$AA_?$AAh?$AAe?$AAl?$AAp?$AAe?$AAr?$AA?$AA@ 100bbfdc     LIBCMTD:vswprnc.obj
 0003:00010008       ??_C@_1GE@KINELFI@?$AAf?$AA?3?$AA?2?$AAd?$AAd?$AA?2?$AAv?$AAc?$AAt?$AAo?$AAo?$AAl?$AAs?$AA?2?$AAc?$AAr?$AAt?$AA_?$AAb?$AAl?$AAd?$AA?2?$AAs?$AAe?$AAl?$AAf?$AA_?$AAx?$AA8?$AA6?$AA?2?$AAc@ 100bc008     LIBCMTD:vswprnc.obj
 0003:00010080       ??_C@_1EE@MPCHJFGP@?$AAs?$AAt?$AAr?$AAi?$AAn?$AAg?$AA?5?$AA?$CB?$AA?$DN?$AA?5?$AAN?$AAU?$AAL?$AAL?$AA?5?$AA?$CG?$AA?$CG?$AA?5?$AAs?$AAi?$AAz?$AAe?$AAI?$AAn?$AAW?$AAo?$AAr?$AAd?$AAs?$AA?5?$AA?$DO?$AA?5@ 100bc080     LIBCMTD:vswprnc.obj
 0003:000100d4       ??_C@_1BO@OALHJLCI@?$AA_?$AAv?$AAs?$AAw?$AAp?$AAr?$AAi?$AAn?$AAt?$AAf?$AA_?$AAs?$AA_?$AAl?$AA?$AA@ 100bc0d4     LIBCMTD:vswprnc.obj
 0003:000100f8       ??_C@_1CA@BKFKMJFF@?$AA_?$AAv?$AAs?$AAn?$AAw?$AAp?$AAr?$AAi?$AAn?$AAt?$AAf?$AA_?$AAs?$AA_?$AAl?$AA?$AA@ 100bc0f8     LIBCMTD:vswprnc.obj
 0003:00010120       ??_C@_1O@NCBFODOE@?$AAx?$AAt?$AAo?$AAw?$AA_?$AAs?$AA?$AA@ 100bc120     LIBCMTD:xtows.obj
 0003:00010130       ??_C@_1BC@HDEJCFPB@?$AAx?$AA6?$AA4?$AAt?$AAo?$AAw?$AA_?$AAs?$AA?$AA@ 100bc130     LIBCMTD:xtows.obj
 0003:00010148       ??_C@_1BG@BBCDFOMA@?$AA_?$AAw?$AAo?$AAu?$AAt?$AAp?$AAu?$AAt?$AA_?$AAl?$AA?$AA@ 100bc148     LIBCMTD:woutput.obj
 0003:00010164       ??_C@_1BK@EPLNBKAK@?$AA_?$AAv?$AAs?$AAw?$AAp?$AAr?$AAi?$AAn?$AAt?$AAf?$AA_?$AAl?$AA?$AA@ 100bc164     LIBCMTD:vswprint.obj
 0003:00010184       ??_C@_1CG@IMMIEPNA@?$AA_?$AAv?$AAs?$AAc?$AAw?$AAp?$AAr?$AAi?$AAn?$AAt?$AAf?$AA_?$AAh?$AAe?$AAl?$AAp?$AAe?$AAr?$AA?$AA@ 100bc184     LIBCMTD:vswprint.obj
 0003:000101b4       ??_C@_1BA@BALFACEM@?$AAC?$AAO?$AAN?$AAO?$AAU?$AAT?$AA$?$AA?$AA@ 100bc1b4     LIBCMTD:initcon.obj
 0003:000101c8       ??_C@_1CA@LFDHAMEM@?$AA_?$AAs?$AAe?$AAt?$AA_?$AAe?$AAr?$AAr?$AAo?$AAr?$AA_?$AAm?$AAo?$AAd?$AAe?$AA?$AA@ 100bc1c8     LIBCMTD:errmode.obj
 0003:000101f0       ??_C@_1GC@FGMGFCNB@?$AAf?$AA?3?$AA?2?$AAd?$AAd?$AA?2?$AAv?$AAc?$AAt?$AAo?$AAo?$AAl?$AAs?$AA?2?$AAc?$AAr?$AAt?$AA_?$AAb?$AAl?$AAd?$AA?2?$AAs?$AAe?$AAl?$AAf?$AA_?$AAx?$AA8?$AA6?$AA?2?$AAc@ 100bc1f0     LIBCMTD:errmode.obj
 0003:00010268       ??_C@_1DE@BCNCAIK@?$AA?$CI?$AA?$CC?$AAI?$AAn?$AAv?$AAa?$AAl?$AAi?$AAd?$AA?5?$AAe?$AAr?$AAr?$AAo?$AAr?$AA_?$AAm?$AAo?$AAd?$AAe?$AA?$CC?$AA?0?$AA?5?$AA0?$AA?$CJ?$AA?$AA@ 100bc268     LIBCMTD:errmode.obj
 0003:000102a8       ??_C@_1BE@PMMBFFCC@?$AAw?$AAc?$AAs?$AAn?$AAc?$AAp?$AAy?$AA_?$AAs?$AA?$AA@ 100bc2a8     LIBCMTD:wcsncpy_s.obj
 0003:000102c0       __pDestructExceptionObject 100bc2c0     LIBCMTD:frame.obj
 0003:000102c4       ??_C@_0O@DPKOEFFH@bad?5exception?$AA@ 100bc2c4     LIBCMTD:frame.obj
 0003:000102d8       ??_7bad_exception@std@@6B@ 100bc2d8     LIBCMTD:frame.obj
 0003:000102e4       ??_C@_0BK@CIDNPOGP@GetUserObjectInformationA?$AA@ 100bc2e4     LIBCMTD:crtmbox.obj
 0003:00010304       ??_C@_0M@CHKKJDAI@MessageBoxA?$AA@ 100bc304     LIBCMTD:crtmbox.obj
 0003:00010314       ??_C@_07LCBHPJJN@LC_TIME?$AA@ 100bc314     LIBCMTD:setlocal.obj
 0003:00010320       ??_C@_0L@DLHIECNL@LC_NUMERIC?$AA@ 100bc320     LIBCMTD:setlocal.obj
 0003:00010330       ??_C@_0M@MIENIKLA@LC_MONETARY?$AA@ 100bc330     LIBCMTD:setlocal.obj
 0003:00010340       ??_C@_08EADHIDAD@LC_CTYPE?$AA@ 100bc340     LIBCMTD:setlocal.obj
 0003:0001034c       ??_C@_0L@KFJHEKIK@LC_COLLATE?$AA@ 100bc34c     LIBCMTD:setlocal.obj
 0003:0001035c       ??_C@_06NEFDFEKB@LC_ALL?$AA@ 100bc35c     LIBCMTD:setlocal.obj
 0003:00010368       ___lc_category             100bc368     LIBCMTD:setlocal.obj
 0003:00010458       ??_C@_1CI@FGIONOJM@?$AA_?$AAc?$AAo?$AAn?$AAf?$AAi?$AAg?$AAt?$AAh?$AAr?$AAe?$AAa?$AAd?$AAl?$AAo?$AAc?$AAa?$AAl?$AAe?$AA?$AA@ 100bc458     LIBCMTD:setlocal.obj
 0003:00010488       ??_C@_1GE@OLEIGPBJ@?$AAf?$AA?3?$AA?2?$AAd?$AAd?$AA?2?$AAv?$AAc?$AAt?$AAo?$AAo?$AAl?$AAs?$AA?2?$AAc?$AAr?$AAt?$AA_?$AAb?$AAl?$AAd?$AA?2?$AAs?$AAe?$AAl?$AAf?$AA_?$AAx?$AA8?$AA6?$AA?2?$AAc@ 100bc488     LIBCMTD:setlocal.obj
 0003:00010500       ??_C@_1GA@LDEGDKD@?$AA?$CI?$AA?$CC?$AAI?$AAn?$AAv?$AAa?$AAl?$AAi?$AAd?$AA?5?$AAp?$AAa?$AAr?$AAa?$AAm?$AAe?$AAt?$AAe?$AAr?$AA?5?$AAf?$AAo?$AAr?$AA?5?$AA_?$AAc?$AAo?$AAn?$AAf?$AAi?$AAg?$AAt@ 100bc500     LIBCMTD:setlocal.obj
 0003:00010574       ??_C@_0DC@JCPFNMID@f?3?2dd?2vctools?2crt_bld?2self_x86?2c@ 100bc574     LIBCMTD:setlocal.obj
 0003:000105b0       ??_C@_1BE@DBJGBOJC@?$AAs?$AAe?$AAt?$AAl?$AAo?$AAc?$AAa?$AAl?$AAe?$AA?$AA@ 100bc5b0     LIBCMTD:setlocal.obj
 0003:000105c8       ??_C@_1FG@OHLFEKMC@?$AAL?$AAC?$AA_?$AAM?$AAI?$AAN?$AA?5?$AA?$DM?$AA?$DN?$AA?5?$AA_?$AAc?$AAa?$AAt?$AAe?$AAg?$AAo?$AAr?$AAy?$AA?5?$AA?$CG?$AA?$CG?$AA?5?$AA_?$AAc?$AAa?$AAt?$AAe?$AAg?$AAo?$AAr?$AAy@ 100bc5c8     LIBCMTD:setlocal.obj
 0003:00010630       ??_C@_1IA@PFIKKKFB@?$AAs?$AAt?$AAr?$AAn?$AAc?$AAp?$AAy?$AA_?$AAs?$AA?$CI?$AAl?$AAc?$AAt?$AAe?$AAm?$AAp?$AA?0?$AA?5?$AA?$CI?$AAs?$AAi?$AAz?$AAe?$AAo?$AAf?$AA?$CI?$AAl?$AAc?$AAt?$AAe?$AAm?$AAp@ 100bc630     LIBCMTD:setlocal.obj
 0003:000106cc       ??_C@_1CE@OFNHIOO@?$AA_?$AAs?$AAe?$AAt?$AAl?$AAo?$AAc?$AAa?$AAl?$AAe?$AA_?$AAn?$AAo?$AAl?$AAo?$AAc?$AAk?$AA?$AA@ 100bc6cc     LIBCMTD:setlocal.obj
 0003:000106f8       ??_C@_01ICJEACDI@?$DL?$AA@ 100bc6f8     LIBCMTD:setlocal.obj
 0003:000106fc       ??_C@_02BALPLPBG@?$DN?$DL?$AA@ 100bc6fc     LIBCMTD:setlocal.obj
 0003:00010700       ??_C@_1GO@JALHLJEH@?$AAs?$AAt?$AAr?$AAc?$AAp?$AAy?$AA_?$AAs?$AA?$CI?$AAp?$AAc?$AAh?$AA?5?$AA?$CL?$AA?5?$AAs?$AAi?$AAz?$AAe?$AAo?$AAf?$AA?$CI?$AAi?$AAn?$AAt?$AA?$CJ?$AA?0?$AA?5?$AAc?$AAc?$AAh?$AA?5@ 100bc700     LIBCMTD:setlocal.obj
 0003:00010784       ??_C@_1CG@IEFIICPK@?$AA_?$AAs?$AAe?$AAt?$AAl?$AAo?$AAc?$AAa?$AAl?$AAe?$AA_?$AAs?$AAe?$AAt?$AA_?$AAc?$AAa?$AAt?$AA?$AA@ 100bc784     LIBCMTD:setlocal.obj
 0003:000107b4       ??_C@_1DA@GDKKLCLM@?$AAs?$AAt?$AAr?$AAc?$AAa?$AAt?$AA_?$AAs?$AA?$CI?$AAp?$AAc?$AAh?$AA?0?$AA?5?$AAc?$AAc?$AAh?$AA?0?$AA?5?$AA?$CC?$AA?$DL?$AA?$CC?$AA?$CJ?$AA?$AA@ 100bc7b4     LIBCMTD:setlocal.obj
 0003:000107f0       ??_C@_1CG@NNFIJLDA@?$AA_?$AAs?$AAe?$AAt?$AAl?$AAo?$AAc?$AAa?$AAl?$AAe?$AA_?$AAg?$AAe?$AAt?$AA_?$AAa?$AAl?$AAl?$AA?$AA@ 100bc7f0     LIBCMTD:setlocal.obj
 0003:00010820       ??_C@_01NEMOKFLO@?$DN?$AA@ 100bc820     LIBCMTD:setlocal.obj
 0003:00010828       ??_C@_1FA@MHAOOIBO@?$AAs?$AAt?$AAr?$AAc?$AAp?$AAy?$AA_?$AAs?$AA?$CI?$AAo?$AAu?$AAt?$AAp?$AAu?$AAt?$AA?0?$AA?5?$AAs?$AAi?$AAz?$AAe?$AAI?$AAn?$AAC?$AAh?$AAa?$AAr?$AAs?$AA?0?$AA?5?$AAc?$AAa@ 100bc828     LIBCMTD:setlocal.obj
 0003:00010888       ??_C@_1IA@ONNFOEDA@?$AAs?$AAt?$AAr?$AAn?$AAc?$AAp?$AAy?$AA_?$AAs?$AA?$CI?$AAc?$AAa?$AAc?$AAh?$AAe?$AAi?$AAn?$AA?0?$AA?5?$AAc?$AAa?$AAc?$AAh?$AAe?$AAi?$AAn?$AAS?$AAi?$AAz?$AAe?$AA?0?$AA?5@ 100bc888     LIBCMTD:setlocal.obj
 0003:00010924       ??_C@_01GFHCPBMG@C?$AA@    100bc924     LIBCMTD:setlocal.obj
 0003:00010928       ??_C@_1EG@MOMHKOD@?$AAs?$AAt?$AAr?$AAc?$AAp?$AAy?$AA_?$AAs?$AA?$CI?$AAo?$AAu?$AAt?$AAp?$AAu?$AAt?$AA?0?$AA?5?$AAs?$AAi?$AAz?$AAe?$AAI?$AAn?$AAC?$AAh?$AAa?$AAr?$AAs?$AA?0?$AA?5?$AA?$CC?$AAC@ 100bc928     LIBCMTD:setlocal.obj
 0003:0001097c       ??_C@_1BM@OIIBLEFG@?$AA_?$AAe?$AAx?$AAp?$AAa?$AAn?$AAd?$AAl?$AAo?$AAc?$AAa?$AAl?$AAe?$AA?$AA@ 100bc97c     LIBCMTD:setlocal.obj
 0003:000109a0       ??_C@_1BGM@IJDLABMC@?$AAs?$AAt?$AAr?$AAc?$AAa?$AAt?$AA_?$AAs?$AA?$CI?$AAo?$AAu?$AAt?$AAs?$AAt?$AAr?$AA?0?$AA?5?$AAs?$AAi?$AAz?$AAe?$AAI?$AAn?$AAB?$AAy?$AAt?$AAe?$AAs?$AA?0?$AA?5?$AA?$CI?$AA?5@ 100bc9a0     LIBCMTD:setlocal.obj
 0003:00010b54       ??_C@_1BC@PIABMDIP@?$AA_?$AAs?$AAt?$AAr?$AAc?$AAa?$AAt?$AAs?$AA?$AA@ 100bcb54     LIBCMTD:setlocal.obj
 0003:00010b70       ??_C@_1MM@NOPMGFHF@?$AAs?$AAt?$AAr?$AAn?$AAc?$AAp?$AAy?$AA_?$AAs?$AA?$CI?$AAn?$AAa?$AAm?$AAe?$AAs?$AA?9?$AA?$DO?$AAs?$AAz?$AAC?$AAo?$AAd?$AAe?$AAP?$AAa?$AAg?$AAe?$AA?0?$AA?5?$AA?$CI?$AAs?$AAi@ 100bcb70     LIBCMTD:setlocal.obj
 0003:00010c68       ??_C@_1MG@PHNILIAG@?$AAs?$AAt?$AAr?$AAn?$AAc?$AAp?$AAy?$AA_?$AAs?$AA?$CI?$AAn?$AAa?$AAm?$AAe?$AAs?$AA?9?$AA?$DO?$AAs?$AAz?$AAC?$AAo?$AAu?$AAn?$AAt?$AAr?$AAy?$AA?0?$AA?5?$AA?$CI?$AAs?$AAi?$AAz@ 100bcc68     LIBCMTD:setlocal.obj
 0003:00010d58       ??_C@_1MM@BFEECMAF@?$AAs?$AAt?$AAr?$AAn?$AAc?$AAp?$AAy?$AA_?$AAs?$AA?$CI?$AAn?$AAa?$AAm?$AAe?$AAs?$AA?9?$AA?$DO?$AAs?$AAz?$AAL?$AAa?$AAn?$AAg?$AAu?$AAa?$AAg?$AAe?$AA?0?$AA?5?$AA?$CI?$AAs?$AAi@ 100bcd58     LIBCMTD:setlocal.obj
 0003:00010e4c       ??_C@_03EGDHDPFD@_?4?0?$AA@ 100bce4c     LIBCMTD:setlocal.obj
 0003:00010e50       ??_C@_1NG@FMOPGKGG@?$AAs?$AAt?$AAr?$AAn?$AAc?$AAp?$AAy?$AA_?$AAs?$AA?$CI?$AAn?$AAa?$AAm?$AAe?$AAs?$AA?9?$AA?$DO?$AAs?$AAz?$AAC?$AAo?$AAd?$AAe?$AAP?$AAa?$AAg?$AAe?$AA?0?$AA?5?$AA?$CI?$AAs?$AAi@ 100bce50     LIBCMTD:setlocal.obj
 0003:00010f50       ??_C@_1BK@CBMMLAGJ@?$AA_?$AA_?$AAl?$AAc?$AA_?$AAs?$AAt?$AAr?$AAt?$AAo?$AAl?$AAc?$AA?$AA@ 100bcf50     LIBCMTD:setlocal.obj
 0003:00010f70       ??_C@_01LFCBOECM@?4?$AA@   100bcf70     LIBCMTD:setlocal.obj
 0003:00010f74       ??_C@_01IDAFKMJL@_?$AA@    100bcf74     LIBCMTD:setlocal.obj
 0003:00010f78       ??_C@_1HC@IBDBLKCB@?$AAs?$AAt?$AAr?$AAc?$AAp?$AAy?$AA_?$AAs?$AA?$CI?$AAl?$AAo?$AAc?$AAa?$AAl?$AAe?$AA?0?$AA?5?$AAs?$AAi?$AAz?$AAe?$AAI?$AAn?$AAB?$AAy?$AAt?$AAe?$AAs?$AA?0?$AA?5?$AA?$CI?$AAc@ 100bcf78     LIBCMTD:setlocal.obj
 0003:00011000       ??_C@_1BK@FGDJDEPG@?$AA_?$AA_?$AAl?$AAc?$AA_?$AAl?$AAc?$AAt?$AAo?$AAs?$AAt?$AAr?$AA?$AA@ 100bd000     LIBCMTD:setlocal.obj
 0003:00011020       ??_C@_0DB@OLNNDFNH@f?3?2dd?2vctools?2crt_bld?2self_x86?2c@ 100bd020     LIBCMTD:_sftbuf.obj
 0003:00011060       ??_C@_1GC@DGAFOCMO@?$AAf?$AA?3?$AA?2?$AAd?$AAd?$AA?2?$AAv?$AAc?$AAt?$AAo?$AAo?$AAl?$AAs?$AA?2?$AAc?$AAr?$AAt?$AA_?$AAb?$AAl?$AAd?$AA?2?$AAs?$AAe?$AAl?$AAf?$AA_?$AAx?$AA8?$AA6?$AA?2?$AAc@ 100bd060     LIBCMTD:_sftbuf.obj
 0003:000110d8       ??_C@_1CO@KCKAACMI@?$AAf?$AAl?$AAa?$AAg?$AA?5?$AA?$DN?$AA?$DN?$AA?5?$AA0?$AA?5?$AA?$HM?$AA?$HM?$AA?5?$AAf?$AAl?$AAa?$AAg?$AA?5?$AA?$DN?$AA?$DN?$AA?5?$AA1?$AA?$AA@ 100bd0d8     LIBCMTD:_sftbuf.obj
 0003:00011110       ??_C@_1BO@JGFPDJCP@?$AAv?$AAp?$AAr?$AAi?$AAn?$AAt?$AAf?$AA_?$AAh?$AAe?$AAl?$AAp?$AAe?$AAr?$AA?$AA@ 100bd110     LIBCMTD:vprintf.obj
 0003:00011138       ??_C@_1GC@DHFFJKMC@?$AAf?$AA?3?$AA?2?$AAd?$AAd?$AA?2?$AAv?$AAc?$AAt?$AAo?$AAo?$AAl?$AAs?$AA?2?$AAc?$AAr?$AAt?$AA_?$AAb?$AAl?$AAd?$AA?2?$AAs?$AAe?$AAl?$AAf?$AA_?$AAx?$AA8?$AA6?$AA?2?$AAc@ 100bd138     LIBCMTD:vprintf.obj
 0003:000111b0       ??_C@_1DG@NMBGBDM@?$AAp?$AAl?$AAo?$AAc?$AAi?$AA?9?$AA?$DO?$AAc?$AAt?$AAy?$AAp?$AAe?$AA1?$AA_?$AAr?$AAe?$AAf?$AAc?$AAo?$AAu?$AAn?$AAt?$AA?5?$AA?$DO?$AA?5?$AA0?$AA?$AA@ 100bd1b0     LIBCMTD:initctyp.obj
 0003:000111f0       ??_C@_1GE@OCPKBDKE@?$AAf?$AA?3?$AA?2?$AAd?$AAd?$AA?2?$AAv?$AAc?$AAt?$AAo?$AAo?$AAl?$AAs?$AA?2?$AAc?$AAr?$AAt?$AA_?$AAb?$AAl?$AAd?$AA?2?$AAs?$AAe?$AAl?$AAf?$AA_?$AAx?$AA8?$AA6?$AA?2?$AAc@ 100bd1f0     LIBCMTD:initctyp.obj
 0003:00011268       ??_C@_0DC@EHLBFILA@f?3?2dd?2vctools?2crt_bld?2self_x86?2c@ 100bd268     LIBCMTD:initctyp.obj
 0003:000112a8       ??_C@_1FE@CEHLKAHD@?$AAi?$AAb?$AAa?$AAs?$AAe?$AA?5?$AA?$DN?$AA?$DN?$AA?5?$AA0?$AA?5?$AA?$HM?$AA?$HM?$AA?5?$AA?$CI?$AA2?$AA?5?$AA?$DM?$AA?$DN?$AA?5?$AAi?$AAb?$AAa?$AAs?$AAe?$AA?5?$AA?$CG?$AA?$CG?$AA?5?$AAi?$AAb?$AAa@ 100bd2a8     LIBCMTD:strtol.obj
 0003:0001130c       ??_C@_1BA@LOLAMAJG@?$AAs?$AAt?$AAr?$AAt?$AAo?$AAx?$AAl?$AA?$AA@ 100bd30c     LIBCMTD:strtol.obj
 0003:00011320       ??_C@_1GA@IPHKKOEI@?$AAf?$AA?3?$AA?2?$AAd?$AAd?$AA?2?$AAv?$AAc?$AAt?$AAo?$AAo?$AAl?$AAs?$AA?2?$AAc?$AAr?$AAt?$AA_?$AAb?$AAl?$AAd?$AA?2?$AAs?$AAe?$AAl?$AAf?$AA_?$AAx?$AA8?$AA6?$AA?2?$AAc@ 100bd320     LIBCMTD:strtol.obj
 0003:00011394       ??_C@_1BK@LAOAACLJ@?$AAn?$AAp?$AAt?$AAr?$AA?5?$AA?$CB?$AA?$DN?$AA?5?$AAN?$AAU?$AAL?$AAL?$AA?$AA@ 100bd394     LIBCMTD:strtol.obj
 0003:000113b4       ??_C@_1CC@JLPHKJPH@?$AAc?$AAo?$AAu?$AAn?$AAt?$AA?5?$AA?$DM?$AA?$DN?$AA?5?$AAI?$AAN?$AAT?$AA_?$AAM?$AAA?$AAX?$AA?$AA@ 100bd3b4     LIBCMTD:strnicmp.obj
 0003:000113dc       ??_C@_1BI@BJLEPLEF@?$AA_?$AAs?$AAt?$AAr?$AAn?$AAi?$AAc?$AAm?$AAp?$AA_?$AAl?$AA?$AA@ 100bd3dc     LIBCMTD:strnicmp.obj
 0003:000113f8       ??_C@_1GE@CONPOJMA@?$AAf?$AA?3?$AA?2?$AAd?$AAd?$AA?2?$AAv?$AAc?$AAt?$AAo?$AAo?$AAl?$AAs?$AA?2?$AAc?$AAr?$AAt?$AA_?$AAb?$AAl?$AAd?$AA?2?$AAs?$AAe?$AAl?$AAf?$AA_?$AAx?$AA8?$AA6?$AA?2?$AAc@ 100bd3f8     LIBCMTD:strnicmp.obj
 0003:00011470       ??_C@_1BE@BHJDFFNA@?$AA_?$AAs?$AAt?$AAr?$AAn?$AAi?$AAc?$AAm?$AAp?$AA?$AA@ 100bd470     LIBCMTD:strnicmp.obj
 0003:00011488       ??_C@_1BK@ONMFGLDB@?$AA_?$AAw?$AAo?$AAu?$AAt?$AAp?$AAu?$AAt?$AA_?$AAs?$AA_?$AAl?$AA?$AA@ 100bd488     LIBCMTD:woutputs.obj
 0003:000114a8       ??_C@_1BK@GDEKGMNC@?$AA_?$AAw?$AAo?$AAu?$AAt?$AAp?$AAu?$AAt?$AA_?$AAp?$AA_?$AAl?$AA?$AA@ 100bd4a8     LIBCMTD:woutputp.obj
 0003:000114c8       ??_C@_1O@HJNPHHHB@?$AAf?$AAp?$AAu?$AAt?$AAw?$AAc?$AA?$AA@ 100bd4c8     LIBCMTD:fputwc.obj
 0003:000114d8       ??_C@_1GA@BJIGKGEA@?$AAf?$AA?3?$AA?2?$AAd?$AAd?$AA?2?$AAv?$AAc?$AAt?$AAo?$AAo?$AAl?$AAs?$AA?2?$AAc?$AAr?$AAt?$AA_?$AAb?$AAl?$AAd?$AA?2?$AAs?$AAe?$AAl?$AAf?$AA_?$AAx?$AA8?$AA6?$AA?2?$AAc@ 100bd4d8     LIBCMTD:fputwc.obj
 0003:00011578       ??_7type_info@@6B@         100bd578     LIBCMTD:typinfo.obj
 0003:00011584       ??_7exception@std@@6B@     100bd584     LIBCMTD:stdexcpt.obj
 0003:00011590       ??_C@_0BC@EOODALEL@Unknown?5exception?$AA@ 100bd590     LIBCMTD:stdexcpt.obj
 0003:000115ac       ??_7bad_cast@std@@6B@      100bd5ac     LIBCMTD:stdexcpt.obj
 0003:000115bc       ??_7bad_typeid@std@@6B@    100bd5bc     LIBCMTD:stdexcpt.obj
 0003:000115cc       ??_7__non_rtti_object@std@@6B@ 100bd5cc     LIBCMTD:stdexcpt.obj
 0003:000115d8       ??_C@_1GE@BDAODJCD@?$AAf?$AA?3?$AA?2?$AAd?$AAd?$AA?2?$AAv?$AAc?$AAt?$AAo?$AAo?$AAl?$AAs?$AA?2?$AAc?$AAr?$AAt?$AA_?$AAb?$AAl?$AAd?$AA?2?$AAs?$AAe?$AAl?$AAf?$AA_?$AAx?$AA8?$AA6?$AA?2?$AAc@ 100bd5d8     LIBCMTD:dbgdel.obj
 0003:00011650       ??_C@_0O@FMJNFNKE@united?9states?$AA@ 100bd650     LIBCMTD:getqloc.obj
 0003:00011660       ??_C@_0P@NDHFFKCA@united?9kingdom?$AA@ 100bd660     LIBCMTD:getqloc.obj
 0003:00011674       ??_C@_0BC@HHDADLGF@trinidad?5?$CG?5tobago?$AA@ 100bd674     LIBCMTD:getqloc.obj
 0003:0001168c       ??_C@_0M@IOAEBDAC@south?9korea?$AA@ 100bd68c     LIBCMTD:getqloc.obj
 0003:0001169c       ??_C@_0N@FIELFKIJ@south?9africa?$AA@ 100bd69c     LIBCMTD:getqloc.obj
 0003:000116ac       ??_C@_0M@OPNDHCMC@south?5korea?$AA@ 100bd6ac     LIBCMTD:getqloc.obj
 0003:000116bc       ??_C@_0N@MDEOEPFI@south?5africa?$AA@ 100bd6bc     LIBCMTD:getqloc.obj
 0003:000116cc       ??_C@_06FKAPCJLB@slovak?$AA@ 100bd6cc     LIBCMTD:getqloc.obj
 0003:000116d4       ??_C@_0M@EFJANOAL@puerto?9rico?$AA@ 100bd6d4     LIBCMTD:getqloc.obj
 0003:000116e4       ??_C@_08PGOJKDAI@pr?9china?$AA@ 100bd6e4     LIBCMTD:getqloc.obj
 0003:000116f0       ??_C@_08JHDOMCMI@pr?5china?$AA@ 100bd6f0     LIBCMTD:getqloc.obj
 0003:000116fc       ??_C@_02JHCHFBLL@nz?$AA@   100bd6fc     LIBCMTD:getqloc.obj
 0003:00011700       ??_C@_0M@LINHDHKP@new?9zealand?$AA@ 100bd700     LIBCMTD:getqloc.obj
 0003:00011710       ??_C@_09IIIPPBDB@hong?9kong?$AA@ 100bd710     LIBCMTD:getqloc.obj
 0003:0001171c       ??_C@_07HJLCKBG@holland?$AA@ 100bd71c     LIBCMTD:getqloc.obj
 0003:00011728       ??_C@_0O@LEHGMHAG@great?5britain?$AA@ 100bd728     LIBCMTD:getqloc.obj
 0003:00011738       ??_C@_07FACOMELA@england?$AA@ 100bd738     LIBCMTD:getqloc.obj
 0003:00011744       ??_C@_05JIHCEICB@czech?$AA@ 100bd744     LIBCMTD:getqloc.obj
 0003:0001174c       ??_C@_05BBJOBLGB@china?$AA@ 100bd74c     LIBCMTD:getqloc.obj
 0003:00011754       ??_C@_07GPKPHICP@britain?$AA@ 100bd754     LIBCMTD:getqloc.obj
 0003:00011760       ??_C@_07MHIPBHMG@america?$AA@ 100bd760     LIBCMTD:getqloc.obj
 0003:0001176c       ??_C@_03KIALPMKC@usa?$AA@  100bd76c     LIBCMTD:getqloc.obj
 0003:00011770       ??_C@_02FGJGKGGD@us?$AA@   100bd770     LIBCMTD:getqloc.obj
 0003:00011774       ??_C@_02NEINDODK@uk?$AA@   100bd774     LIBCMTD:getqloc.obj
 0003:00011778       ??_C@_05JMPCFJFJ@swiss?$AA@ 100bd778     LIBCMTD:getqloc.obj
 0003:00011780       ??_C@_0BA@HLOCPIOD@swedish?9finland?$AA@ 100bd780     LIBCMTD:getqloc.obj
 0003:00011794       ??_C@_0BC@PKCNIABK@spanish?9venezuela?$AA@ 100bd794     LIBCMTD:getqloc.obj
 0003:000117ac       ??_C@_0BA@GBHHMIJI@spanish?9uruguay?$AA@ 100bd7ac     LIBCMTD:getqloc.obj
 0003:000117c0       ??_C@_0BE@BHDOHPMC@spanish?9puerto?5rico?$AA@ 100bd7c0     LIBCMTD:getqloc.obj
 0003:000117d8       ??_C@_0N@KMOIDGGN@spanish?9peru?$AA@ 100bd7d8     LIBCMTD:getqloc.obj
 0003:000117e8       ??_C@_0BB@HMHLPGPH@spanish?9paraguay?$AA@ 100bd7e8     LIBCMTD:getqloc.obj
 0003:000117fc       ??_C@_0P@MCPKNGFD@spanish?9panama?$AA@ 100bd7fc     LIBCMTD:getqloc.obj
 0003:00011810       ??_C@_0BC@IHOHGAIL@spanish?9nicaragua?$AA@ 100bd810     LIBCMTD:getqloc.obj
 0003:00011828       ??_C@_0P@KLMJDNFJ@spanish?9modern?$AA@ 100bd828     LIBCMTD:getqloc.obj
 0003:0001183c       ??_C@_0BA@BPAPGBCM@spanish?9mexican?$AA@ 100bd83c     LIBCMTD:getqloc.obj
 0003:00011850       ??_C@_0BB@PDECHHHE@spanish?9honduras?$AA@ 100bd850     LIBCMTD:getqloc.obj
 0003:00011864       ??_C@_0BC@KLHKFGDB@spanish?9guatemala?$AA@ 100bd864     LIBCMTD:getqloc.obj
 0003:0001187c       ??_C@_0BE@MFOOKJAI@spanish?9el?5salvador?$AA@ 100bd87c     LIBCMTD:getqloc.obj
 0003:00011894       ??_C@_0BA@FCOKFPFC@spanish?9ecuador?$AA@ 100bd894     LIBCMTD:getqloc.obj
 0003:000118a8       ??_C@_0BL@PLMGIMOO@spanish?9dominican?5republic?$AA@ 100bd8a8     LIBCMTD:getqloc.obj
 0003:000118c8       ??_C@_0BD@HLGDNMHB@spanish?9costa?5rica?$AA@ 100bd8c8     LIBCMTD:getqloc.obj
 0003:000118e0       ??_C@_0BB@PKCBKCPE@spanish?9colombia?$AA@ 100bd8e0     LIBCMTD:getqloc.obj
 0003:000118f4       ??_C@_0O@MCBIJGNE@spanish?9chile?$AA@ 100bd8f4     LIBCMTD:getqloc.obj
 0003:00011904       ??_C@_0BA@BEFEIGJJ@spanish?9bolivia?$AA@ 100bd904     LIBCMTD:getqloc.obj
 0003:00011918       ??_C@_0BC@EMECMPD@spanish?9argentina?$AA@ 100bd918     LIBCMTD:getqloc.obj
 0003:00011930       ??_C@_0BF@EALFLENP@portuguese?9brazilian?$AA@ 100bd930     LIBCMTD:getqloc.obj
 0003:0001194c       ??_C@_0BC@HBLEBLNN@norwegian?9nynorsk?$AA@ 100bd94c     LIBCMTD:getqloc.obj
 0003:00011964       ??_C@_0BB@HMACDDCK@norwegian?9bokmal?$AA@ 100bd964     LIBCMTD:getqloc.obj
 0003:00011978       ??_C@_09BAFFPPHE@norwegian?$AA@ 100bd978     LIBCMTD:getqloc.obj
 0003:00011984       ??_C@_0O@EAJFJDFG@italian?9swiss?$AA@ 100bd984     LIBCMTD:getqloc.obj
 0003:00011994       ??_C@_0O@CNOMPGD@irish?9english?$AA@ 100bd994     LIBCMTD:getqloc.obj
 0003:000119a4       ??_C@_0N@EDHBGCKG@german?9swiss?$AA@ 100bd9a4     LIBCMTD:getqloc.obj
 0003:000119b4       ??_C@_0BC@JACMHNBP@german?9luxembourg?$AA@ 100bd9b4     LIBCMTD:getqloc.obj
 0003:000119cc       ??_C@_0BE@HBGMGFEG@german?9lichtenstein?$AA@ 100bd9cc     LIBCMTD:getqloc.obj
 0003:000119e4       ??_C@_0BA@HKKBIBKL@german?9austrian?$AA@ 100bd9e4     LIBCMTD:getqloc.obj
 0003:000119f8       ??_C@_0N@GCAEPEBK@french?9swiss?$AA@ 100bd9f8     LIBCMTD:getqloc.obj
 0003:00011a08       ??_C@_0BC@DJFJJCK@french?9luxembourg?$AA@ 100bda08     LIBCMTD:getqloc.obj
 0003:00011a20       ??_C@_0BA@NNCEDFIC@french?9canadian?$AA@ 100bda20     LIBCMTD:getqloc.obj
 0003:00011a34       ??_C@_0P@CMPOCLM@french?9belgian?$AA@ 100bda34     LIBCMTD:getqloc.obj
 0003:00011a48       ??_C@_0M@GHHDJOK@english?9usa?$AA@ 100bda48     LIBCMTD:getqloc.obj
 0003:00011a58       ??_C@_0L@PLDJKEIL@english?9us?$AA@ 100bda58     LIBCMTD:getqloc.obj
 0003:00011a68       ??_C@_0L@HJCCDMNC@english?9uk?$AA@ 100bda68     LIBCMTD:getqloc.obj
 0003:00011a78       ??_C@_0BK@CKLIAGJB@english?9trinidad?5y?5tobago?$AA@ 100bda78     LIBCMTD:getqloc.obj
 0003:00011a98       ??_C@_0BF@JMJMGNNF@english?9south?5africa?$AA@ 100bda98     LIBCMTD:getqloc.obj
 0003:00011ab4       ??_C@_0L@DKIIFDFD@english?9nz?$AA@ 100bdab4     LIBCMTD:getqloc.obj
 0003:00011ac4       ??_C@_0BA@ONHGJCLH@english?9jamaica?$AA@ 100bdac4     LIBCMTD:getqloc.obj
 0003:00011ad8       ??_C@_0M@HJBGHOPO@english?9ire?$AA@ 100bdad8     LIBCMTD:getqloc.obj
 0003:00011ae8       ??_C@_0BC@LFEKMIFB@english?9caribbean?$AA@ 100bdae8     LIBCMTD:getqloc.obj
 0003:00011b00       ??_C@_0M@OLDPFKHI@english?9can?$AA@ 100bdb00     LIBCMTD:getqloc.obj
 0003:00011b10       ??_C@_0P@OMDEHBMP@english?9belize?$AA@ 100bdb10     LIBCMTD:getqloc.obj
 0003:00011b24       ??_C@_0M@KFHFPFED@english?9aus?$AA@ 100bdb24     LIBCMTD:getqloc.obj
 0003:00011b34       ??_C@_0BB@MNMBKDFE@english?9american?$AA@ 100bdb34     LIBCMTD:getqloc.obj
 0003:00011b48       ??_C@_0O@KIDLNNBA@dutch?9belgian?$AA@ 100bdb48     LIBCMTD:getqloc.obj
 0003:00011b58       ??_C@_0BE@JBKABBMH@chinese?9traditional?$AA@ 100bdb58     LIBCMTD:getqloc.obj
 0003:00011b70       ??_C@_0BC@MJJMPKCG@chinese?9singapore?$AA@ 100bdb70     LIBCMTD:getqloc.obj
 0003:00011b88       ??_C@_0BD@FDKADDCP@chinese?9simplified?$AA@ 100bdb88     LIBCMTD:getqloc.obj
 0003:00011ba0       ??_C@_0BB@DBEFDDME@chinese?9hongkong?$AA@ 100bdba0     LIBCMTD:getqloc.obj
 0003:00011bb4       ??_C@_07DHNMFMCI@chinese?$AA@ 100bdbb4     LIBCMTD:getqloc.obj
 0003:00011bc0       ??_C@_03FNDDCHI@chi?$AA@   100bdbc0     LIBCMTD:getqloc.obj
 0003:00011bc4       ??_C@_03BMMIADDJ@chh?$AA@  100bdbc4     LIBCMTD:getqloc.obj
 0003:00011bc8       ??_C@_08OAIPJDGI@canadian?$AA@ 100bdbc8     LIBCMTD:getqloc.obj
 0003:00011bd4       ??_C@_07HBPMNPNJ@belgian?$AA@ 100bdbd4     LIBCMTD:getqloc.obj
 0003:00011be0       ??_C@_0L@OEKOPBEL@australian?$AA@ 100bdbe0     LIBCMTD:getqloc.obj
 0003:00011bf0       ??_C@_0BB@MEIMBEDG@american?9english?$AA@ 100bdbf0     LIBCMTD:getqloc.obj
 0003:00011c04       ??_C@_0BB@DFMDPDGB@american?5english?$AA@ 100bdc04     LIBCMTD:getqloc.obj
 0003:00011c18       ??_C@_08IJLOKOLL@american?$AA@ 100bdc18     LIBCMTD:getqloc.obj
 0003:00011c28       ___rg_language             100bdc28     LIBCMTD:getqloc.obj
 0003:00011e98       ___rg_country              100bde98     LIBCMTD:getqloc.obj
 0003:00011f74       ___rglangidNotDefault      100bdf74     LIBCMTD:getqloc.obj
 0003:00011f8c       ??_C@_0BC@NFIEMBLL@Norwegian?9Nynorsk?$AA@ 100bdf8c     LIBCMTD:getqloc.obj
 0003:00011fa8       ??_C@_1OM@OECHDGCF@?$AAs?$AAt?$AAr?$AAc?$AAp?$AAy?$AA_?$AAs?$AA?$CI?$AAl?$AAp?$AAO?$AAu?$AAt?$AAS?$AAt?$AAr?$AA?9?$AA?$DO?$AAs?$AAz?$AAL?$AAa?$AAn?$AAg?$AAu?$AAa?$AAg?$AAe?$AA?0?$AA?5?$AA?$CI@ 100bdfa8     LIBCMTD:getqloc.obj
 0003:000120c4       ??_C@_1CO@NJACLALJ@?$AA_?$AA_?$AAg?$AAe?$AAt?$AA_?$AAq?$AAu?$AAa?$AAl?$AAi?$AAf?$AAi?$AAe?$AAd?$AA_?$AAl?$AAo?$AAc?$AAa?$AAl?$AAe?$AA?$AA@ 100be0c4     LIBCMTD:getqloc.obj
 0003:00012100       ??_C@_1GC@FECJGAE@?$AAf?$AA?3?$AA?2?$AAd?$AAd?$AA?2?$AAv?$AAc?$AAt?$AAo?$AAo?$AAl?$AAs?$AA?2?$AAc?$AAr?$AAt?$AA_?$AAb?$AAl?$AAd?$AA?2?$AAs?$AAe?$AAl?$AAf?$AA_?$AAx?$AA8?$AA6?$AA?2?$AAc@ 100be100     LIBCMTD:getqloc.obj
 0003:00012178       ??_C@_03NFKLAGEF@OCP?$AA@  100be178     LIBCMTD:getqloc.obj
 0003:0001217c       ??_C@_03DFHEHBHG@ACP?$AA@  100be17c     LIBCMTD:getqloc.obj
 0003:00012180       ??_C@_1BA@PCFLFGNC@?$AAw?$AAc?$AAs?$AAt?$AAo?$AAx?$AAl?$AA?$AA@ 100be180     LIBCMTD:wcstol.obj
 0003:00012198       ??_C@_1GA@CADFOND@?$AAf?$AA?3?$AA?2?$AAd?$AAd?$AA?2?$AAv?$AAc?$AAt?$AAo?$AAo?$AAl?$AAs?$AA?2?$AAc?$AAr?$AAt?$AA_?$AAb?$AAl?$AAd?$AA?2?$AAs?$AAe?$AAl?$AAf?$AA_?$AAx?$AA8?$AA6?$AA?2?$AAc@ 100be198     LIBCMTD:wcstol.obj
 0003:00012210       ??_C@_1HG@KNCBMCDD@?$AAf?$AA?3?$AA?2?$AAd?$AAd?$AA?2?$AAv?$AAc?$AAt?$AAo?$AAo?$AAl?$AAs?$AA?2?$AAc?$AAr?$AAt?$AA_?$AAb?$AAl?$AAd?$AA?2?$AAs?$AAe?$AAl?$AAf?$AA_?$AAx?$AA8?$AA6?$AA?2?$AAc@ 100be210     LIBCMTD:typname.obj
 0003:000122a0       ??_C@_1CK@GELGGBDK@?$AAp?$AAN?$AAo?$AAd?$AAe?$AA?9?$AA?$DO?$AA_?$AAN?$AAe?$AAx?$AAt?$AA?5?$AA?$CB?$AA?$DN?$AA?5?$AAN?$AAU?$AAL?$AAL?$AA?$AA@ 100be2a0     LIBCMTD:typname.obj
 0003:000122d8       ??_C@_1JK@NAFNEPGC@?$AAs?$AAt?$AAr?$AAc?$AAp?$AAy?$AA_?$AAs?$AA?5?$AA?$CI?$AA?$CI?$AAc?$AAh?$AAa?$AAr?$AA?5?$AA?$CK?$AA?$CJ?$AA?$CI?$AA?$CI?$AAt?$AAy?$AAp?$AAe?$AA_?$AAi?$AAn?$AAf?$AAo?$AA?5?$AA?$CK?$AA?$CJ@ 100be2d8     LIBCMTD:typname.obj
 0003:00012390       ??_C@_1CM@OOICDMK@?$AAt?$AAy?$AAp?$AAe?$AA_?$AAi?$AAn?$AAf?$AAo?$AA?3?$AA?3?$AA_?$AAN?$AAa?$AAm?$AAe?$AA_?$AAb?$AAa?$AAs?$AAe?$AA?$AA@ 100be390     LIBCMTD:typname.obj
 0003:000123c8       ??_C@_1GI@EAJKJPED@?$AAs?$AAt?$AAr?$AAc?$AAp?$AAy?$AA_?$AAs?$AA?5?$AA?$CI?$AAp?$AAT?$AAm?$AAp?$AAT?$AAy?$AAp?$AAe?$AAN?$AAa?$AAm?$AAe?$AA?0?$AA?5?$AAl?$AAe?$AAn?$AA?$CL?$AA2?$AA?0?$AA?5?$AA?$CI@ 100be3c8     LIBCMTD:typname.obj
 0003:00012444       ??_C@_1DO@OJJLFJPE@?$AAt?$AAy?$AAp?$AAe?$AA_?$AAi?$AAn?$AAf?$AAo?$AA?3?$AA?3?$AA_?$AAN?$AAa?$AAm?$AAe?$AA_?$AAb?$AAa?$AAs?$AAe?$AA_?$AAi?$AAn?$AAt?$AAe?$AAr?$AAn?$AAa?$AAl?$AA?$AA@ 100be444     LIBCMTD:typname.obj
 0003:00012490       ??_C@_1BG@GLLONOEH@?$AA_?$AAs?$AAt?$AAr?$AAi?$AAc?$AAm?$AAp?$AA_?$AAl?$AA?$AA@ 100be490     LIBCMTD:stricmp.obj
 0003:000124b0       ??_C@_1GC@OILHAOLL@?$AAf?$AA?3?$AA?2?$AAd?$AAd?$AA?2?$AAv?$AAc?$AAt?$AAo?$AAo?$AAl?$AAs?$AA?2?$AAc?$AAr?$AAt?$AA_?$AAb?$AAl?$AAd?$AA?2?$AAs?$AAe?$AAl?$AAf?$AA_?$AAx?$AA8?$AA6?$AA?2?$AAc@ 100be4b0     LIBCMTD:stricmp.obj
 0003:00012528       ??_C@_1BC@JLGKKIIG@?$AA_?$AAs?$AAt?$AAr?$AAi?$AAc?$AAm?$AAp?$AA?$AA@ 100be528     LIBCMTD:stricmp.obj
 0003:00012540       ??_C@_0BK@CFCOFLF@?5Complete?5Object?5Locator?8?$AA@ 100be540     LIBCMTD:undname.obj
 0003:00012560       ??_C@_0BN@MECKDCOJ@?5Class?5Hierarchy?5Descriptor?8?$AA@ 100be560     LIBCMTD:undname.obj
 0003:00012584       ??_C@_0BD@LGICGFMM@?5Base?5Class?5Array?8?$AA@ 100be584     LIBCMTD:undname.obj
 0003:0001259c       ??_C@_0BM@LDKODKLH@?5Base?5Class?5Descriptor?5at?5?$CI?$AA@ 100be59c     LIBCMTD:undname.obj
 0003:000125c0       ??_C@_0BC@DAFEJGAK@?5Type?5Descriptor?8?$AA@ 100be5c0     LIBCMTD:undname.obj
 0003:000125d8       ??_C@_0BM@PMGGMLDN@?$GAlocal?5static?5thread?5guard?8?$AA@ 100be5d8     LIBCMTD:undname.obj
 0003:000125fc       ??_C@_0CL@FGIJHLCE@?$GAmanaged?5vector?5copy?5constructor@ 100be5fc     LIBCMTD:undname.obj
 0003:00012630       ??_C@_0CJ@GJELGAMM@?$GAvector?5vbase?5copy?5constructor?5i@ 100be630     LIBCMTD:undname.obj
 0003:00012664       ??_C@_0CD@CGAJBKEJ@?$GAvector?5copy?5constructor?5iterato@ 100be664     LIBCMTD:undname.obj
 0003:00012690       ??_C@_0CB@PDBIFEP@?$GAdynamic?5atexit?5destructor?5for?5?8@ 100be690     LIBCMTD:undname.obj
 0003:000126b8       ??_C@_0BL@CLIPGLGB@?$GAdynamic?5initializer?5for?5?8?$AA@ 100be6b8     LIBCMTD:undname.obj
 0003:000126d8       ??_C@_0CM@FCBBDIGB@?$GAeh?5vector?5vbase?5copy?5constructo@ 100be6d8     LIBCMTD:undname.obj
 0003:0001270c       ??_C@_0CG@HLDDJMAG@?$GAeh?5vector?5copy?5constructor?5iter@ 100be70c     LIBCMTD:undname.obj
 0003:0001273c       ??_C@_0CF@IMGKMJNO@?$GAmanaged?5vector?5destructor?5itera@ 100be73c     LIBCMTD:undname.obj
 0003:00012768       ??_C@_0CG@CFDHKGGD@?$GAmanaged?5vector?5constructor?5iter@ 100be768     LIBCMTD:undname.obj
 0003:00012798       ??_C@_0BN@CKNJLHMB@?$GAplacement?5delete?$FL?$FN?5closure?8?$AA@ 100be798     LIBCMTD:undname.obj
 0003:000127bc       ??_C@_0BL@CNOONJFP@?$GAplacement?5delete?5closure?8?$AA@ 100be7bc     LIBCMTD:undname.obj
 0003:000127dc       ??_C@_0P@HJKNJFNN@?$GAomni?5callsig?8?$AA@ 100be7dc     LIBCMTD:undname.obj
 0003:000127f0       ??_C@_09LBNFPBCA@?5delete?$FL?$FN?$AA@ 100be7f0     LIBCMTD:undname.obj
 0003:000127fc       ??_C@_06FHBGPFGH@?5new?$FL?$FN?$AA@ 100be7fc     LIBCMTD:undname.obj
 0003:00012804       ??_C@_0CE@IIHCMGGL@?$GAlocal?5vftable?5constructor?5closu@ 100be804     LIBCMTD:undname.obj
 0003:00012830       ??_C@_0BA@KKLDJDLB@?$GAlocal?5vftable?8?$AA@ 100be830     LIBCMTD:undname.obj
 0003:00012844       ??_C@_05KHLCHHI@?$GARTTI?$AA@ 100be844     LIBCMTD:undname.obj
 0003:0001284c       ??_C@_03KLGMFNMG@?$GAEH?$AA@ 100be84c     LIBCMTD:undname.obj
 0003:00012850       ??_C@_0BA@KBCDOMBN@?$GAudt?5returning?8?$AA@ 100be850     LIBCMTD:undname.obj
 0003:00012864       ??_C@_0BL@LLKPOHJI@?$GAcopy?5constructor?5closure?8?$AA@ 100be864     LIBCMTD:undname.obj
 0003:00012884       ??_C@_0CH@OOJPLCPH@?$GAeh?5vector?5vbase?5constructor?5ite@ 100be884     LIBCMTD:undname.obj
 0003:000128b4       ??_C@_0CA@GCEOPDGL@?$GAeh?5vector?5destructor?5iterator?8?$AA@ 100be8b4     LIBCMTD:undname.obj
 0003:000128dc       ??_C@_0CB@JONCMFFK@?$GAeh?5vector?5constructor?5iterator?8@ 100be8dc     LIBCMTD:undname.obj
 0003:00012904       ??_C@_0BL@NILFHHPC@?$GAvirtual?5displacement?5map?8?$AA@ 100be904     LIBCMTD:undname.obj
 0003:00012924       ??_C@_0CE@IKBNEHA@?$GAvector?5vbase?5constructor?5iterat@ 100be924     LIBCMTD:undname.obj
 0003:00012950       ??_C@_0BN@LFPFMEDL@?$GAvector?5destructor?5iterator?8?$AA@ 100be950     LIBCMTD:undname.obj
 0003:00012974       ??_C@_0BO@PFGOCPJJ@?$GAvector?5constructor?5iterator?8?$AA@ 100be974     LIBCMTD:undname.obj
 0003:00012998       ??_C@_0BN@IMDCHIKM@?$GAscalar?5deleting?5destructor?8?$AA@ 100be998     LIBCMTD:undname.obj
 0003:000129bc       ??_C@_0BO@OBMKPJIG@?$GAdefault?5constructor?5closure?8?$AA@ 100be9bc     LIBCMTD:undname.obj
 0003:000129e0       ??_C@_0BN@DEGPLNFK@?$GAvector?5deleting?5destructor?8?$AA@ 100be9e0     LIBCMTD:undname.obj
 0003:00012a04       ??_C@_0BD@JDLKDPAB@?$GAvbase?5destructor?8?$AA@ 100bea04     LIBCMTD:undname.obj
 0003:00012a1c       ??_C@_08OBABFOLI@?$GAstring?8?$AA@ 100bea1c     LIBCMTD:undname.obj
 0003:00012a28       ??_C@_0BF@KDPPACIK@?$GAlocal?5static?5guard?8?$AA@ 100bea28     LIBCMTD:undname.obj
 0003:00012a44       ??_C@_08LLFFHHDJ@?$GAtypeof?8?$AA@ 100bea44     LIBCMTD:undname.obj
 0003:00012a50       ??_C@_07FEEIOKP@?$GAvcall?8?$AA@ 100bea50     LIBCMTD:undname.obj
 0003:00012a5c       ??_C@_09BLBHBJP@?$GAvbtable?8?$AA@ 100bea5c     LIBCMTD:undname.obj
 0003:00012a68       ??_C@_09IFPLHPGF@?$GAvftable?8?$AA@ 100bea68     LIBCMTD:undname.obj
 0003:00012a74       ??_C@_02MHEGNOJ@?$FO?$DN?$AA@ 100bea74     LIBCMTD:undname.obj
 0003:00012a78       ??_C@_02DHLNPPGH@?$HM?$DN?$AA@ 100bea78     LIBCMTD:undname.obj
 0003:00012a7c       ??_C@_02FGJGFEAB@?$CG?$DN?$AA@ 100bea7c     LIBCMTD:undname.obj
 0003:00012a80       ??_C@_03CDNPDDLA@?$DM?$DM?$DN?$AA@ 100bea80     LIBCMTD:undname.obj
 0003:00012a84       ??_C@_03IKFCCPFF@?$DO?$DO?$DN?$AA@ 100bea84     LIBCMTD:undname.obj
 0003:00012a88       ??_C@_02FENAOKFI@?$CF?$DN?$AA@ 100bea88     LIBCMTD:undname.obj
 0003:00012a8c       ??_C@_02FJEHGPIO@?1?$DN?$AA@ 100bea8c     LIBCMTD:undname.obj
 0003:00012a90       ??_C@_02FKMDLLOA@?9?$DN?$AA@ 100bea90     LIBCMTD:undname.obj
 0003:00012a94       ??_C@_02FOEOMHFC@?$CL?$DN?$AA@ 100bea94     LIBCMTD:undname.obj
 0003:00012a98       ??_C@_02FPIMKNGF@?$CK?$DN?$AA@ 100bea98     LIBCMTD:undname.obj
 0003:00012a9c       ??_C@_02NONPIBCD@?$HM?$HM?$AA@ 100bea9c     LIBCMTD:undname.obj
 0003:00012aa0       ??_C@_02PPKAJPJL@?$CG?$CG?$AA@ 100beaa0     LIBCMTD:undname.obj
 0003:00012aa4       ??_C@_01DNKMNLPK@?$HM?$AA@ 100beaa4     LIBCMTD:undname.obj
 0003:00012aa8       ??_C@_01JKBOJNNK@?$FO?$AA@ 100beaa8     LIBCMTD:undname.obj
 0003:00012aac       ??_C@_01PJKLJHI@?$HO?$AA@  100beaac     LIBCMTD:undname.obj
 0003:00012ab0       ??_C@_02HCKGKOFO@?$CI?$CJ?$AA@ 100beab0     LIBCMTD:undname.obj
 0003:00012ab4       ??_C@_01IHBHIGKO@?0?$AA@   100beab4     LIBCMTD:undname.obj
 0003:00012ab8       ??_C@_02EEKDKGMJ@?$DO?$DN?$AA@ 100beab8     LIBCMTD:undname.obj
 0003:00012abc       ??_C@_01PPODPGHN@?$DO?$AA@ 100beabc     LIBCMTD:undname.obj
 0003:00012ac0       ??_C@_02EHCHHCKH@?$DM?$DN?$AA@ 100beac0     LIBCMTD:undname.obj
 0003:00012ac4       ??_C@_01MNNFJEPP@?$DM?$AA@ 100beac4     LIBCMTD:undname.obj
 0003:00012ac8       ??_C@_01FGNFDNOH@?$CF?$AA@ 100beac8     LIBCMTD:undname.obj
 0003:00012acc       ??_C@_01KMDKNFGN@?1?$AA@   100beacc     LIBCMTD:undname.obj
 0003:00012ad0       ??_C@_03MNHNFDLC@?9?$DO?$CK?$AA@ 100bead0     LIBCMTD:undname.obj
 0003:00012ad4       ??_C@_01HNPIGOCE@?$CG?$AA@ 100bead4     LIBCMTD:undname.obj
 0003:00012ad8       ??_C@_01MIFGBAGJ@?$CL?$AA@ 100bead8     LIBCMTD:undname.obj
 0003:00012adc       ??_C@_02BAABKJLB@?9?9?$AA@ 100beadc     LIBCMTD:undname.obj
 0003:00012ae0       ??_C@_02ECNGHCIF@?$CL?$CL?$AA@ 100beae0     LIBCMTD:undname.obj
 0003:00012ae4       ??_C@_01NBENCBCI@?$CK?$AA@ 100beae4     LIBCMTD:undname.obj
 0003:00012ae8       ??_C@_02HBOOOICD@?9?$DO?$AA@ 100beae8     LIBCMTD:undname.obj
 0003:00012aec       ??_C@_08LHJFAFGD@operator?$AA@ 100beaec     LIBCMTD:undname.obj
 0003:00012af8       ??_C@_02GPECMEKF@?$FL?$FN?$AA@ 100beaf8     LIBCMTD:undname.obj
 0003:00012afc       ??_C@_02FDNJECIE@?$CB?$DN?$AA@ 100beafc     LIBCMTD:undname.obj
 0003:00012b00       ??_C@_02EGOFBIJA@?$DN?$DN?$AA@ 100beb00     LIBCMTD:undname.obj
 0003:00012b04       ??_C@_01DCLJPIOD@?$CB?$AA@ 100beb04     LIBCMTD:undname.obj
 0003:00012b08       ??_C@_02FODMEDOG@?$DM?$DM?$AA@ 100beb08     LIBCMTD:undname.obj
 0003:00012b0c       ??_C@_02GPIOPFAK@?$DO?$DO?$AA@ 100beb0c     LIBCMTD:undname.obj
 0003:00012b10       ??_C@_07FPCDHGMM@?5delete?$AA@ 100beb10     LIBCMTD:undname.obj
 0003:00012b1c       ??_C@_04NIHEBCM@?5new?$AA@ 100beb1c     LIBCMTD:undname.obj
 0003:00012b24       ??_C@_0M@GFIIJFMG@__unaligned?$AA@ 100beb24     LIBCMTD:undname.obj
 0003:00012b34       ??_C@_0L@PILCLIHE@__restrict?$AA@ 100beb34     LIBCMTD:undname.obj
 0003:00012b44       ??_C@_07JOMMBBKO@__ptr64?$AA@ 100beb44     LIBCMTD:undname.obj
 0003:00012b50       ??_C@_06GHPCKEAG@__eabi?$AA@ 100beb50     LIBCMTD:undname.obj
 0003:00012b58       ??_C@_09HIJEGCPM@__clrcall?$AA@ 100beb58     LIBCMTD:undname.obj
 0003:00012b64       ??_C@_0L@JMKHOMEK@__fastcall?$AA@ 100beb64     LIBCMTD:undname.obj
 0003:00012b74       ??_C@_0L@NPHFGOKO@__thiscall?$AA@ 100beb74     LIBCMTD:undname.obj
 0003:00012b84       ??_C@_09IFJBGAPI@__stdcall?$AA@ 100beb84     LIBCMTD:undname.obj
 0003:00012b90       ??_C@_08GHMPAG@__pascal?$AA@ 100beb90     LIBCMTD:undname.obj
 0003:00012b9c       ??_C@_07KOLFKCDI@__cdecl?$AA@ 100beb9c     LIBCMTD:undname.obj
 0003:00012ba8       ??_C@_08EHJDFFNH@__based?$CI?$AA@ 100beba8     LIBCMTD:undname.obj
 0003:00012d8c       ??_C@_04HEJADOOB@CV?3?5?$AA@ 100bed8c     LIBCMTD:undname.obj
 0003:00012d94       ??_C@_02MOLJINC@?3?3?$AA@  100bed94     LIBCMTD:undname.obj
 0003:00012d98       ??_C@_01GEODFPGF@?8?$AA@   100bed98     LIBCMTD:undname.obj
 0003:00012d9c       ??_C@_01NLNLIGKH@?$GA?$AA@ 100bed9c     LIBCMTD:undname.obj
 0003:00012da0       ??_C@_0O@KHGCOMHP@generic?9type?9?$AA@ 100beda0     LIBCMTD:undname.obj
 0003:00012db0       ??_C@_0BE@JAEOCHPE@template?9parameter?9?$AA@ 100bedb0     LIBCMTD:undname.obj
 0003:00012dc8       ??_C@_02OHHJMEON@?8?8?$AA@ 100bedc8     LIBCMTD:undname.obj
 0003:00012dcc       ??_C@_0BG@JNJLAMPM@?$GAanonymous?5namespace?8?$AA@ 100bedcc     LIBCMTD:undname.obj
 0003:00012de8       ??_C@_0BN@IBLMMFAP@?$GAnon?9type?9template?9parameter?$AA@ 100bede8     LIBCMTD:undname.obj
 0003:00012e0c       ??_C@_0BE@EODMJLIF@?$GAtemplate?9parameter?$AA@ 100bee0c     LIBCMTD:undname.obj
 0003:00012e24       ??_C@_04GKJNKENE@void?$AA@ 100bee24     LIBCMTD:undname.obj
 0003:00012e2c       ??_C@_04HIBGFPH@NULL?$AA@  100bee2c     LIBCMTD:undname.obj
 0003:00012e34       ??_C@_0M@DHNBOJMP@extern?5?$CCC?$CC?5?$AA@ 100bee34     LIBCMTD:undname.obj
 0003:00012e44       ??_C@_08KJLFOPNE@?$FLthunk?$FN?3?$AA@ 100bee44     LIBCMTD:undname.obj
 0003:00012e50       ??_C@_08GPDDCMKI@public?3?5?$AA@ 100bee50     LIBCMTD:undname.obj
 0003:00012e5c       ??_C@_0M@GAIFPFIP@protected?3?5?$AA@ 100bee5c     LIBCMTD:undname.obj
 0003:00012e6c       ??_C@_09LAPHOOG@private?3?5?$AA@ 100bee6c     LIBCMTD:undname.obj
 0003:00012e78       ??_C@_08NIEOINHE@virtual?5?$AA@ 100bee78     LIBCMTD:undname.obj
 0003:00012e84       ??_C@_07PGOEDBHP@static?5?$AA@ 100bee84     LIBCMTD:undname.obj
 0003:00012e90       ??_C@_0DA@HGFJFBBE@?$GAtemplate?5static?5data?5member?5des@ 100bee90     LIBCMTD:undname.obj
 0003:00012ecc       ??_C@_0DB@ILEFOCIJ@?$GAtemplate?5static?5data?5member?5con@ 100beecc     LIBCMTD:undname.obj
 0003:00012f08       ??_C@_0CB@KJDOOODE@?$GAlocal?5static?5destructor?5helper?8@ 100bef08     LIBCMTD:undname.obj
 0003:00012f30       ??_C@_0L@HNGCOGAE@?$GAadjustor?$HL?$AA@ 100bef30     LIBCMTD:undname.obj
 0003:00012f40       ??_C@_0L@GHPFDFH@?$GAvtordisp?$HL?$AA@ 100bef40     LIBCMTD:undname.obj
 0003:00012f50       ??_C@_0N@CBHHHENL@?$GAvtordispex?$HL?$AA@ 100bef50     LIBCMTD:undname.obj
 0003:00012f60       ??_C@_01CLKCMJKC@?5?$AA@   100bef60     LIBCMTD:undname.obj
 0003:00012f64       ??_C@_02IGFCGPIL@?$HN?8?$AA@ 100bef64     LIBCMTD:undname.obj
 0003:00012f68       ??_C@_03OPGICMGF@?$HN?8?5?$AA@ 100bef68     LIBCMTD:undname.obj
 0003:00012f6c       ??_C@_02KCKGHPCA@?$CJ?5?$AA@ 100bef6c     LIBCMTD:undname.obj
 0003:00012f70       ??_C@_05BEFAKPML@void?5?$AA@ 100bef70     LIBCMTD:undname.obj
 0003:00012f78       ??_C@_0P@GCOCNKDM@std?3?3nullptr_t?$AA@ 100bef78     LIBCMTD:undname.obj
 0003:00012f8c       ??_C@_08PABEKFH@volatile?$AA@ 100bef8c     LIBCMTD:undname.obj
 0003:00012f98       ??_C@_0M@ELJOJFFH@?0?$DMellipsis?$DO?$AA@ 100bef98     LIBCMTD:undname.obj
 0003:00012fa8       ??_C@_04EENFHACM@?0?4?4?4?$AA@ 100befa8     LIBCMTD:undname.obj
 0003:00012fb0       ??_C@_0L@EGPHHEKN@?$DMellipsis?$DO?$AA@ 100befb0     LIBCMTD:undname.obj
 0003:00012fc0       ??_C@_07HDJPLPEK@?5throw?$CI?$AA@ 100befc0     LIBCMTD:undname.obj
 0003:00012fcc       ??_C@_09EFNPDFFP@?5volatile?$AA@ 100befcc     LIBCMTD:undname.obj
 0003:00012fd8       ??_C@_05BNCCCJPP@const?$AA@ 100befd8     LIBCMTD:undname.obj
 0003:00012fe0       ??_C@_07EDHNAJHC@signed?5?$AA@ 100befe0     LIBCMTD:undname.obj
 0003:00012fec       ??_C@_09EBBEKKIH@unsigned?5?$AA@ 100befec     LIBCMTD:undname.obj
 0003:00012ff8       ??_C@_07NFANNNEC@UNKNOWN?$AA@ 100beff8     LIBCMTD:undname.obj
 0003:00013004       ??_C@_06GCICPBLB@__w64?5?$AA@ 100bf004     LIBCMTD:undname.obj
 0003:0001300c       ??_C@_07CLGGIAMF@wchar_t?$AA@ 100bf00c     LIBCMTD:undname.obj
 0003:00013018       ??_C@_09EEKGDCPH@?$DMunknown?$DO?$AA@ 100bf018     LIBCMTD:undname.obj
 0003:00013024       ??_C@_08GAHOLHEO@__int128?$AA@ 100bf024     LIBCMTD:undname.obj
 0003:00013030       ??_C@_07LFCOJCAC@__int64?$AA@ 100bf030     LIBCMTD:undname.obj
 0003:0001303c       ??_C@_07OFLPPHGP@__int32?$AA@ 100bf03c     LIBCMTD:undname.obj
 0003:00013048       ??_C@_07ICFHOGAF@__int16?$AA@ 100bf048     LIBCMTD:undname.obj
 0003:00013054       ??_C@_06EBGKOKIG@__int8?$AA@ 100bf054     LIBCMTD:undname.obj
 0003:0001305c       ??_C@_04DDKJGDCM@bool?$AA@ 100bf05c     LIBCMTD:undname.obj
 0003:00013064       ??_C@_06BNJCAIGJ@double?$AA@ 100bf064     LIBCMTD:undname.obj
 0003:0001306c       ??_C@_05CJIMAING@long?5?$AA@ 100bf06c     LIBCMTD:undname.obj
 0003:00013074       ??_C@_05KNFBNCOH@float?$AA@ 100bf074     LIBCMTD:undname.obj
 0003:0001307c       ??_C@_04GOKPGOLB@long?$AA@ 100bf07c     LIBCMTD:undname.obj
 0003:00013084       ??_C@_03JBIPMCLC@int?$AA@  100bf084     LIBCMTD:undname.obj
 0003:00013088       ??_C@_05BFKKPKCG@short?$AA@ 100bf088     LIBCMTD:undname.obj
 0003:00013090       ??_C@_04ENMBGAPA@char?$AA@ 100bf090     LIBCMTD:undname.obj
 0003:00013098       ??_C@_05LJGMCFOG@enum?5?$AA@ 100bf098     LIBCMTD:undname.obj
 0003:000130a0       ??_C@_0N@DLIEFKNA@cointerface?5?$AA@ 100bf0a0     LIBCMTD:undname.obj
 0003:000130b0       ??_C@_08KOFANOFK@coclass?5?$AA@ 100bf0b0     LIBCMTD:undname.obj
 0003:000130bc       ??_C@_06LJBABKPM@class?5?$AA@ 100bf0bc     LIBCMTD:undname.obj
 0003:000130c4       ??_C@_07DIBCDNGL@struct?5?$AA@ 100bf0c4     LIBCMTD:undname.obj
 0003:000130d0       ??_C@_06MOJHIBMG@union?5?$AA@ 100bf0d0     LIBCMTD:undname.obj
 0003:000130d8       ??_C@_0P@GCIFDJCJ@?$GAunknown?5ecsu?8?$AA@ 100bf0d8     LIBCMTD:undname.obj
 0003:000130ec       ??_C@_04LAHKHJMA@int?5?$AA@ 100bf0ec     LIBCMTD:undname.obj
 0003:000130f4       ??_C@_06EHJMALKF@short?5?$AA@ 100bf0f4     LIBCMTD:undname.obj
 0003:000130fc       ??_C@_05CIHEBHNO@char?5?$AA@ 100bf0fc     LIBCMTD:undname.obj
 0003:00013104       ??_C@_06LIJLOJAG@const?5?$AA@ 100bf104     LIBCMTD:undname.obj
 0003:0001310c       ??_C@_09GAIEOBLP@volatile?5?$AA@ 100bf10c     LIBCMTD:undname.obj
 0003:00013118       ??_C@_0O@GKABPPIF@cli?3?3pin_ptr?$DM?$AA@ 100bf118     LIBCMTD:undname.obj
 0003:00013128       ??_C@_0M@EALIELKG@cli?3?3array?$DM?$AA@ 100bf128     LIBCMTD:undname.obj
 0003:00013138       ??_C@_02GOGNNPBN@?$CJ?$FL?$AA@ 100bf138     LIBCMTD:undname.obj
 0003:0001313c       ??_C@_06EEGAIFAK@?$HLflat?$HN?$AA@ 100bf13c     LIBCMTD:undname.obj
 0003:00013144       ??_C@_02MDINNEEG@s?5?$AA@  100bf144     LIBCMTD:undname.obj
 0003:00013148       ??_C@_05JIBOFOHK@?$HLfor?5?$AA@ 100bf148     LIBCMTD:undname.obj
 0003:00013150       ??_7DNameNode@@6B@         100bf150     LIBCMTD:undname.obj
 0003:00013160       ??_7charNode@@6B@          100bf160     LIBCMTD:undname.obj
 0003:00013170       ??_7pcharNode@@6B@         100bf170     LIBCMTD:undname.obj
 0003:00013180       ??_7pDNameNode@@6B@        100bf180     LIBCMTD:undname.obj
 0003:00013190       ??_7DNameStatusNode@@6B@   100bf190     LIBCMTD:undname.obj
 0003:000131a0       ??_C@_04OKOHEJBO@?5?$DP?$DP?5?$AA@ 100bf1a0     LIBCMTD:undname.obj
 0003:000131a8       ??_7pairNode@@6B@          100bf1a8     LIBCMTD:undname.obj
 0003:000131b8       ??_C@_1BA@BMMDEPNE@?$AAs?$AAt?$AAr?$AAt?$AAo?$AAx?$AAq?$AA?$AA@ 100bf1b8     LIBCMTD:strtoq.obj
 0003:000131d0       ??_C@_1GA@GIMEIKLC@?$AAf?$AA?3?$AA?2?$AAd?$AAd?$AA?2?$AAv?$AAc?$AAt?$AAo?$AAo?$AAl?$AAs?$AA?2?$AAc?$AAr?$AAt?$AA_?$AAb?$AAl?$AAd?$AA?2?$AAs?$AAe?$AAl?$AAf?$AA_?$AAx?$AA8?$AA6?$AA?2?$AAc@ 100bf1d0     LIBCMTD:strtoq.obj
 0003:00013840       ??_R4bad_exception@std@@6B@ 100bf840     LIBCMTD:frame.obj
 0003:00013858       ??_R3bad_exception@std@@8  100bf858     LIBCMTD:frame.obj
 0003:0001386c       ??_R2bad_exception@std@@8  100bf86c     LIBCMTD:frame.obj
 0003:00013878       ??_R1A@?0A@EA@bad_exception@std@@8 100bf878     LIBCMTD:frame.obj
 0003:0001389c       ??_R1A@?0A@EA@exception@std@@8 100bf89c     LIBCMTD:frame.obj
 0003:000138c0       ??_R3exception@std@@8      100bf8c0     LIBCMTD:frame.obj
 0003:000138d4       ??_R2exception@std@@8      100bf8d4     LIBCMTD:frame.obj
 0003:000138dc       ??_R4type_info@@6B@        100bf8dc     LIBCMTD:typinfo.obj
 0003:000138f4       ??_R3type_info@@8          100bf8f4     LIBCMTD:typinfo.obj
 0003:00013908       ??_R2type_info@@8          100bf908     LIBCMTD:typinfo.obj
 0003:00013910       ??_R1A@?0A@EA@type_info@@8 100bf910     LIBCMTD:typinfo.obj
 0003:00013934       ??_R4exception@std@@6B@    100bf934     LIBCMTD:stdexcpt.obj
 0003:0001394c       ??_R4bad_cast@std@@6B@     100bf94c     LIBCMTD:stdexcpt.obj
 0003:00013964       ??_R3bad_cast@std@@8       100bf964     LIBCMTD:stdexcpt.obj
 0003:00013978       ??_R2bad_cast@std@@8       100bf978     LIBCMTD:stdexcpt.obj
 0003:00013984       ??_R1A@?0A@EA@bad_cast@std@@8 100bf984     LIBCMTD:stdexcpt.obj
 0003:000139a8       ??_R4bad_typeid@std@@6B@   100bf9a8     LIBCMTD:stdexcpt.obj
 0003:000139c0       ??_R3bad_typeid@std@@8     100bf9c0     LIBCMTD:stdexcpt.obj
 0003:000139d4       ??_R2bad_typeid@std@@8     100bf9d4     LIBCMTD:stdexcpt.obj
 0003:000139e0       ??_R1A@?0A@EA@bad_typeid@std@@8 100bf9e0     LIBCMTD:stdexcpt.obj
 0003:00013a04       ??_R4__non_rtti_object@std@@6B@ 100bfa04     LIBCMTD:stdexcpt.obj
 0003:00013a1c       ??_R3__non_rtti_object@std@@8 100bfa1c     LIBCMTD:stdexcpt.obj
 0003:00013a30       ??_R2__non_rtti_object@std@@8 100bfa30     LIBCMTD:stdexcpt.obj
 0003:00013a40       ??_R1A@?0A@EA@__non_rtti_object@std@@8 100bfa40     LIBCMTD:stdexcpt.obj
 0003:00013b70       ___rtc_iaa                 100bfb70     LIBCMTD:_initsect_.obj
 0003:00013c74       ___rtc_izz                 100bfc74     LIBCMTD:_initsect_.obj
 0003:00013d78       ___rtc_taa                 100bfd78     LIBCMTD:_initsect_.obj
 0003:00013e7c       ___rtc_tzz                 100bfe7c     LIBCMTD:_initsect_.obj
 0003:000147e0       __TI2?AVbad_exception@std@@ 100c07e0     LIBCMTD:frame.obj
 0003:000147f4       __CTA2?AVbad_exception@std@@ 100c07f4     LIBCMTD:frame.obj
 0003:00014804       __CT??_R0?AVbad_exception@std@@@8??0bad_exception@std@@QAE@ABV01@@Z12 100c0804     LIBCMTD:frame.obj
 0003:00014824       __CT??_R0?AVexception@std@@@8??0exception@std@@QAE@ABV01@@Z12 100c0824     LIBCMTD:frame.obj
 0004:00000210       ___badioinfo               100c2210     LIBCMTD:ioinit.obj
 0004:00000260       ___security_cookie         100c2260     LIBCMTD:gs_cookie.obj
 0004:00000264       ___security_cookie_complement 100c2264     LIBCMTD:gs_cookie.obj
 0004:00000268       __lookuptrailbytes         100c2268     LIBCMTD:read.obj
 0004:000003a0       ___initialmbcinfo          100c23a0     LIBCMTD:mbctype.obj
 0004:000005c0       __mbctype                  100c25c0     LIBCMTD:mbctype.obj
 0004:000006c8       __mbcasemap                100c26c8     LIBCMTD:mbctype.obj
 0004:000007c8       ___ptmbcinfo               100c27c8     LIBCMTD:mbctype.obj
 0004:000009c8       ___globallocalestatus      100c29c8     LIBCMTD:glstatus.obj
 0004:000009cc       ___clocalestr              100c29cc     LIBCMTD:nlsdata2.obj
 0004:000009d0       ___lc_time_c               100c29d0     LIBCMTD:nlsdata2.obj
 0004:00000b80       ___initiallocinfo          100c2b80     LIBCMTD:nlsdata2.obj
 0004:00000c84       ___ptlocinfo               100c2c84     LIBCMTD:nlsdata2.obj
 0004:00000c88       ___initiallocalestructinfo 100c2c88     LIBCMTD:nlsdata2.obj
 0004:00000c94       ___flsindex                100c2c94     LIBCMTD:tidtable.obj
 0004:00000c98       ___getvalueindex           100c2c98     LIBCMTD:tidtable.obj
 0004:00000ca0       __crtDbgFlag               100c2ca0     LIBCMTD:dbgheap.obj
 0004:00000ca4       ___crtDebugFillThreshold   100c2ca4     LIBCMTD:dbgheap.obj
 0004:00000cac       __crtBreakAlloc            100c2cac     LIBCMTD:dbgheap.obj
 0004:00000cb8       ___nullstring              100c2cb8     LIBCMTD:output.obj
 0004:00000cbc       ___wnullstring             100c2cbc     LIBCMTD:output.obj
 0004:00000cc8       __sys_errlist              100c2cc8     LIBCMTD:syserr.obj
 0004:00000d78       __sys_nerr                 100c2d78     LIBCMTD:syserr.obj
 0004:00000da0       __iob                      100c2da0     LIBCMTD:_file.obj
 0004:000011fc       __pfnAllocHook             100c31fc     LIBCMTD:dbghook.obj
 0004:00001200       __crtAssertBusy            100c3200     LIBCMTD:dbgrptt.obj
 0004:00001204       __CrtDbgMode               100c3204     LIBCMTD:dbgrptt.obj
 0004:00001210       __CrtDbgFile               100c3210     LIBCMTD:dbgrptt.obj
 0004:00001224       __cfltcvt_tab              100c3224     LIBCMTD:cmiscdat.obj
 0004:00001258       ___lconv_static_decimal    100c3258     LIBCMTD:lconv.obj
 0004:0000125c       ___lconv_static_W_decimal  100c325c     LIBCMTD:lconv.obj
 0004:00001260       ___lconv_c                 100c3260     LIBCMTD:lconv.obj
 0004:000012b0       ___lconv                   100c32b0     LIBCMTD:lconv.obj
 0004:000012c8       __pctype                   100c32c8     LIBCMTD:ctype.obj
 0004:000012cc       __pwctype                  100c32cc     LIBCMTD:ctype.obj
 0004:000012e0       __NLG_Destination          100c32e0     LIBCMTD:exsup.obj
 0004:000012f4       __confh                    100c32f4     LIBCMTD:initcon.obj
 0004:000012f8       ___abort_behavior          100c32f8     LIBCMTD:abort.obj
 0004:000012fc       ??_R0?AVbad_exception@std@@@8 100c32fc     LIBCMTD:frame.obj
 0004:00001324       ??_R0?AVexception@std@@@8  100c3324     LIBCMTD:frame.obj
 0004:00001354       ??_R0?AVtype_info@@@8      100c3354     LIBCMTD:typinfo.obj
 0004:00001370       ??_R0?AVbad_cast@std@@@8   100c3370     LIBCMTD:stdexcpt.obj
 0004:00001390       ??_R0?AVbad_typeid@std@@@8 100c3390     LIBCMTD:stdexcpt.obj
 0004:000013b4       ??_R0?AV__non_rtti_object@std@@@8 100c33b4     LIBCMTD:stdexcpt.obj
 0004:000013e0       ___mb_cur_max              100c33e0     LIBCMTD:nlsdata1.obj
 0004:000013e4       ___decimal_point           100c33e4     LIBCMTD:nlsdata1.obj
 0004:000013e8       ___decimal_point_length    100c33e8     LIBCMTD:nlsdata1.obj
 0004:00001528       __aenvptr                  100c3528     LIBCMTD:dllcrt0.obj
 0004:0000152c       __wenvptr                  100c352c     LIBCMTD:dllcrt0.obj
 0004:00001530       ___error_mode              100c3530     LIBCMTD:dllcrt0.obj
 0004:00001534       ___app_type                100c3534     LIBCMTD:dllcrt0.obj
 0004:0000153c       ___pInvalidArgHandler      100c353c     LIBCMTD:invarg.obj
 0004:00001540       __umaskval                 100c3540     LIBCMTD:crt0dat.obj
 0004:00001544       ___argc                    100c3544     LIBCMTD:crt0dat.obj
 0004:00001548       ___argv                    100c3548     LIBCMTD:crt0dat.obj
 0004:0000154c       ___wargv                   100c354c     LIBCMTD:crt0dat.obj
 0004:00001550       __environ                  100c3550     LIBCMTD:crt0dat.obj
 0004:00001554       ___initenv                 100c3554     LIBCMTD:crt0dat.obj
 0004:00001558       __wenviron                 100c3558     LIBCMTD:crt0dat.obj
 0004:0000155c       ___winitenv                100c355c     LIBCMTD:crt0dat.obj
 0004:00001560       __pgmptr                   100c3560     LIBCMTD:crt0dat.obj
 0004:00001564       __wpgmptr                  100c3564     LIBCMTD:crt0dat.obj
 0004:00001568       __exitflag                 100c3568     LIBCMTD:crt0dat.obj
 0004:0000156c       __C_Termination_Done       100c356c     LIBCMTD:crt0dat.obj
 0004:00001570       __C_Exit_Done              100c3570     LIBCMTD:crt0dat.obj
 0004:00001588       ___mbulinfo                100c3588     LIBCMTD:mbctype.obj
 0004:00001594       ___mbcodepage              100c3594     LIBCMTD:mbctype.obj
 0004:00001598       ___ismbcodepage            100c3598     LIBCMTD:mbctype.obj
 0004:0000159c       ___mblcid                  100c359c     LIBCMTD:mbctype.obj
 0004:000015a8       _gpFlsAlloc                100c35a8     LIBCMTD:tidtable.obj
 0004:000015ac       _gpFlsGetValue             100c35ac     LIBCMTD:tidtable.obj
 0004:000015b0       _gpFlsSetValue             100c35b0     LIBCMTD:tidtable.obj
 0004:000015b4       _gpFlsFree                 100c35b4     LIBCMTD:tidtable.obj
 0004:000015d0       ?_pfnDumpClient@@3P6AXPAXI@ZA 100c35d0     LIBCMTD:dbgheap.obj
 0004:000015d8       ___crtDebugCheckCount      100c35d8     LIBCMTD:dbgheap.obj
 0004:000015e8       __newmode                  100c35e8     LIBCMTD:_newmode.obj
 0004:000015ec       __cflush                   100c35ec     LIBCMTD:_file.obj
 0004:0000172c       __crtheap                  100c372c     LIBCMTD:heapinit.obj
 0004:00002074       ?__pInconsistency@@3P6AXXZA 100c4074     LIBCMTD:hooks.obj
 0004:0000207c       ___pPurecall               100c407c     LIBCMTD:inithelp.obj
 0004:00002080       ?_pnhHeap@@3P6AHI@ZA       100c4080     LIBCMTD:handler.obj
 0004:00002084       __fmode                    100c4084     LIBCMTD:txtmode.obj
 0004:0000244c       ___lconv_static_null       100c444c     LIBCMTD:lconv.obj
 0004:00002450       ___lconv_static_W_null     100c4450     LIBCMTD:lconv.obj
 0004:00002458       __commode                  100c4458     LIBCMTD:ncommode.obj
 0004:00002474       ___locale_changed          100c4474     LIBCMTD:setlocal.obj
 0004:00002478       __stdbuf                   100c4478     LIBCMTD:_sftbuf.obj
 0004:000024a4       ?pArgList@UnDecorator@@0PAVReplicator@@A 100c44a4     LIBCMTD:undname.obj
 0004:000024a8       ?pZNameList@UnDecorator@@0PAVReplicator@@A 100c44a8     LIBCMTD:undname.obj
 0004:000024ac       ?pTemplateArgList@UnDecorator@@0PAVReplicator@@A 100c44ac     LIBCMTD:undname.obj
 0004:000024b0       ?gName@UnDecorator@@0PBDB  100c44b0     LIBCMTD:undname.obj
 0004:000024b4       ?name@UnDecorator@@0PBDB   100c44b4     LIBCMTD:undname.obj
 0004:000024b8       ?outputString@UnDecorator@@0PADA 100c44b8     LIBCMTD:undname.obj
 0004:000024bc       ?maxStringLength@UnDecorator@@0HA 100c44bc     LIBCMTD:undname.obj
 0004:000024c0       ?disableFlags@UnDecorator@@0KA 100c44c0     LIBCMTD:undname.obj
 0004:000024c4       ?m_pGetParameter@UnDecorator@@0P6APADJ@ZA 100c44c4     LIBCMTD:undname.obj
 0004:000024c8       ?fExplicitTemplateParams@UnDecorator@@0_NA 100c44c8     LIBCMTD:undname.obj
 0004:000024c9       ?fGetTemplateArgumentList@UnDecorator@@0_NA 100c44c9     LIBCMTD:undname.obj
 0004:00002538       ?nodes@?1??make@DNameStatusNode@@SAPAV2@W4DNameStatus@@@Z@4PAV2@A 100c4538     LIBCMTD:undname.obj
 0004:00002574       ??_B?1??make@DNameStatusNode@@SAPAV1@W4DNameStatus@@@Z@51 100c4574     LIBCMTD:undname.obj
 0004:00002578       ___setlc_active            100c4578     <common>
 0004:00002588       ___unguarded_readlc_active 100c4588     <common>
 0004:0000258c       __pfnReportHook            100c458c     <common>
 0004:0000259c       __pReportHookListW         100c459c     <common>
 0004:000025a0       __pReportHookList          100c45a0     <common>
 0004:000025a4       __debugger_hook_dummy      100c45a4     <common>
 0004:000025b0       ___piob                    100c45b0     <common>
 0004:00002900       __bufin                    100c4900     <common>
 0004:00003900       __nstream                  100c5900     <common>
 0004:00003904       ___env_initialized         100c5904     <common>
 0004:00003914       ___onexitend               100c5914     <common>
 0004:00003918       ___onexitbegin             100c5918     <common>
 0004:0000391c       ___mbctype_initialized     100c591c     <common>
 0004:00003920       __FPinit                   100c5920     <common>
 0004:00003924       ___dyn_tls_init_callback   100c5924     <common>
 0004:00003928       __nhandle                  100c5928     <common>
 0004:00003980       ___pioinfo                 100c5980     <common>
 0004:00003a80       ___sse2_available          100c5a80     <common>
 0004:00003a8c       __acmdln                   100c5a8c     <common>
 0005:00000000       __IMPORT_DESCRIPTOR_KERNEL32 100c6000     kernel32:KERNEL32.dll
 0005:00000014       __NULL_IMPORT_DESCRIPTOR   100c6014     kernel32:KERNEL32.dll
 0005:000001dc       __imp__CreateFileA@28      100c61dc     kernel32:KERNEL32.dll
 0005:000001e0       __imp__CloseHandle@4       100c61e0     kernel32:KERNEL32.dll
 0005:000001e4       __imp__CreateFileW@28      100c61e4     kernel32:KERNEL32.dll
 0005:000001e8       __imp__GetLastError@0      100c61e8     kernel32:KERNEL32.dll
 0005:000001ec       __imp__ReadFile@20         100c61ec     kernel32:KERNEL32.dll
 0005:000001f0       __imp__WriteFile@20        100c61f0     kernel32:KERNEL32.dll
 0005:000001f4       __imp__SetFilePointer@16   100c61f4     kernel32:KERNEL32.dll
 0005:000001f8       __imp__GetFileType@4       100c61f8     kernel32:KERNEL32.dll
 0005:000001fc       __imp__WideCharToMultiByte@32 100c61fc     kernel32:KERNEL32.dll
 0005:00000200       __imp__GetSystemTimeAsFileTime@4 100c6200     kernel32:KERNEL32.dll
 0005:00000204       __imp__GetCurrentThreadId@0 100c6204     kernel32:KERNEL32.dll
 0005:00000208       __imp__DecodePointer@4     100c6208     kernel32:KERNEL32.dll
 0005:0000020c       __imp__GetCommandLineA@0   100c620c     kernel32:KERNEL32.dll
 0005:00000210       __imp__IsProcessorFeaturePresent@4 100c6210     kernel32:KERNEL32.dll
 0005:00000214       __imp__LeaveCriticalSection@4 100c6214     kernel32:KERNEL32.dll
 0005:00000218       __imp__EnterCriticalSection@4 100c6218     kernel32:KERNEL32.dll
 0005:0000021c       __imp__InitializeCriticalSectionAndSpinCount@8 100c621c     kernel32:KERNEL32.dll
 0005:00000220       __imp__SetStdHandle@8      100c6220     kernel32:KERNEL32.dll
 0005:00000224       __imp__SetHandleCount@4    100c6224     kernel32:KERNEL32.dll
 0005:00000228       __imp__GetStdHandle@4      100c6228     kernel32:KERNEL32.dll
 0005:0000022c       __imp__GetStartupInfoW@4   100c622c     kernel32:KERNEL32.dll
 0005:00000230       __imp__DeleteCriticalSection@4 100c6230     kernel32:KERNEL32.dll
 0005:00000234       __imp__TerminateProcess@8  100c6234     kernel32:KERNEL32.dll
 0005:00000238       __imp__GetCurrentProcess@0 100c6238     kernel32:KERNEL32.dll
 0005:0000023c       __imp__UnhandledExceptionFilter@4 100c623c     kernel32:KERNEL32.dll
 0005:00000240       __imp__SetUnhandledExceptionFilter@4 100c6240     kernel32:KERNEL32.dll
 0005:00000244       __imp__IsDebuggerPresent@0 100c6244     kernel32:KERNEL32.dll
 0005:00000248       __imp__EncodePointer@4     100c6248     kernel32:KERNEL32.dll
 0005:0000024c       __imp__GetModuleFileNameW@12 100c624c     kernel32:KERNEL32.dll
 0005:00000250       __imp__GetConsoleCP@0      100c6250     kernel32:KERNEL32.dll
 0005:00000254       __imp__GetConsoleMode@8    100c6254     kernel32:KERNEL32.dll
 0005:00000258       __imp__SetEndOfFile@4      100c6258     kernel32:KERNEL32.dll
 0005:0000025c       __imp__HeapFree@12         100c625c     kernel32:KERNEL32.dll
 0005:00000260       __imp__HeapAlloc@12        100c6260     kernel32:KERNEL32.dll
 0005:00000264       __imp__GetProcessHeap@0    100c6264     kernel32:KERNEL32.dll
 0005:00000268       __imp__MultiByteToWideChar@24 100c6268     kernel32:KERNEL32.dll
 0005:0000026c       __imp__InterlockedIncrement@4 100c626c     kernel32:KERNEL32.dll
 0005:00000270       __imp__InterlockedDecrement@4 100c6270     kernel32:KERNEL32.dll
 0005:00000274       __imp__GetProcAddress@8    100c6274     kernel32:KERNEL32.dll
 0005:00000278       __imp__GetModuleHandleW@4  100c6278     kernel32:KERNEL32.dll
 0005:0000027c       __imp__ExitProcess@4       100c627c     kernel32:KERNEL32.dll
 0005:00000280       __imp__InterlockedExchange@8 100c6280     kernel32:KERNEL32.dll
 0005:00000284       __imp__GetACP@0            100c6284     kernel32:KERNEL32.dll
 0005:00000288       __imp__GetOEMCP@0          100c6288     kernel32:KERNEL32.dll
 0005:0000028c       __imp__GetCPInfo@8         100c628c     kernel32:KERNEL32.dll
 0005:00000290       __imp__IsValidCodePage@4   100c6290     kernel32:KERNEL32.dll
 0005:00000294       __imp__TlsAlloc@0          100c6294     kernel32:KERNEL32.dll
 0005:00000298       __imp__TlsGetValue@4       100c6298     kernel32:KERNEL32.dll
 0005:0000029c       __imp__TlsSetValue@8       100c629c     kernel32:KERNEL32.dll
 0005:000002a0       __imp__TlsFree@4           100c62a0     kernel32:KERNEL32.dll
 0005:000002a4       __imp__SetLastError@4      100c62a4     kernel32:KERNEL32.dll
 0005:000002a8       __imp__GetCurrentThread@0  100c62a8     kernel32:KERNEL32.dll
 0005:000002ac       __imp__HeapValidate@12     100c62ac     kernel32:KERNEL32.dll
 0005:000002b0       __imp__IsBadReadPtr@8      100c62b0     kernel32:KERNEL32.dll
 0005:000002b4       __imp__RtlUnwind@16        100c62b4     kernel32:KERNEL32.dll
 0005:000002b8       __imp__GetModuleFileNameA@12 100c62b8     kernel32:KERNEL32.dll
 0005:000002bc       __imp__FreeEnvironmentStringsW@4 100c62bc     kernel32:KERNEL32.dll
 0005:000002c0       __imp__GetEnvironmentStringsW@0 100c62c0     kernel32:KERNEL32.dll
 0005:000002c4       __imp__HeapCreate@12       100c62c4     kernel32:KERNEL32.dll
 0005:000002c8       __imp__HeapDestroy@4       100c62c8     kernel32:KERNEL32.dll
 0005:000002cc       __imp__QueryPerformanceCounter@4 100c62cc     kernel32:KERNEL32.dll
 0005:000002d0       __imp__GetTickCount@0      100c62d0     kernel32:KERNEL32.dll
 0005:000002d4       __imp__GetCurrentProcessId@0 100c62d4     kernel32:KERNEL32.dll
 0005:000002d8       __imp__FatalAppExitA@8     100c62d8     kernel32:KERNEL32.dll
 0005:000002dc       __imp__OutputDebugStringA@4 100c62dc     kernel32:KERNEL32.dll
 0005:000002e0       __imp__WriteConsoleW@20    100c62e0     kernel32:KERNEL32.dll
 0005:000002e4       __imp__OutputDebugStringW@4 100c62e4     kernel32:KERNEL32.dll
 0005:000002e8       __imp__SetConsoleCtrlHandler@8 100c62e8     kernel32:KERNEL32.dll
 0005:000002ec       __imp__LoadLibraryW@4      100c62ec     kernel32:KERNEL32.dll
 0005:000002f0       __imp__FreeLibrary@4       100c62f0     kernel32:KERNEL32.dll
 0005:000002f4       __imp__GetLocaleInfoW@16   100c62f4     kernel32:KERNEL32.dll
 0005:000002f8       __imp__LCMapStringW@24     100c62f8     kernel32:KERNEL32.dll
 0005:000002fc       __imp__GetStringTypeW@16   100c62fc     kernel32:KERNEL32.dll
 0005:00000300       __imp__HeapReAlloc@16      100c6300     kernel32:KERNEL32.dll
 0005:00000304       __imp__HeapSize@12         100c6304     kernel32:KERNEL32.dll
 0005:00000308       __imp__HeapQueryInformation@20 100c6308     kernel32:KERNEL32.dll
 0005:0000030c       __imp__FlushFileBuffers@4  100c630c     kernel32:KERNEL32.dll
 0005:00000310       __imp__RaiseException@16   100c6310     kernel32:KERNEL32.dll
 0005:00000314       __imp__GetLocaleInfoA@16   100c6314     kernel32:KERNEL32.dll
 0005:00000318       __imp__IsValidLocale@8     100c6318     kernel32:KERNEL32.dll
 0005:0000031c       __imp__EnumSystemLocalesA@8 100c631c     kernel32:KERNEL32.dll
 0005:00000320       __imp__GetUserDefaultLCID@0 100c6320     kernel32:KERNEL32.dll
 0005:00000324       \177KERNEL32_NULL_THUNK_DATA 100c6324     kernel32:KERNEL32.dll

 entry point at        0002:00000b5e

